   1               		.file	"simpleserial.c"
   2               	__SP_H__ = 0x3e
   3               	__SP_L__ = 0x3d
   4               	__SREG__ = 0x3f
   5               	__RAMPZ__ = 0x3b
   6               	__CCP__ = 0x34
   7               	__tmp_reg__ = 0
   8               	__zero_reg__ = 1
   9               		.text
  10               	.Ltext0:
  11               		.cfi_sections	.debug_frame
  12               	.global	check_version
  14               	check_version:
  15               	.LVL0:
  16               	.LFB16:
  17               		.file 1 "./simpleserial/simpleserial.c"
   1:./simpleserial/simpleserial.c **** // simpleserial.c
   2:./simpleserial/simpleserial.c **** 
   3:./simpleserial/simpleserial.c **** #include "simpleserial.h"
   4:./simpleserial/simpleserial.c **** #include <stdint.h>
   5:./simpleserial/simpleserial.c **** #include "hal.h"
   6:./simpleserial/simpleserial.c **** 
   7:./simpleserial/simpleserial.c **** 
   8:./simpleserial/simpleserial.c **** #define MAX_SS_CMDS 16
   9:./simpleserial/simpleserial.c **** static int num_commands = 0;
  10:./simpleserial/simpleserial.c **** 
  11:./simpleserial/simpleserial.c **** #define MAX_SS_LEN 192
  12:./simpleserial/simpleserial.c **** 
  13:./simpleserial/simpleserial.c **** //#define SS_VER_1_0 0
  14:./simpleserial/simpleserial.c **** //#define SS_VER_1_1 1
  15:./simpleserial/simpleserial.c **** //#define SS_VER_2_0 2
  16:./simpleserial/simpleserial.c **** 
  17:./simpleserial/simpleserial.c **** 
  18:./simpleserial/simpleserial.c **** #define CRC 0xA6
  19:./simpleserial/simpleserial.c **** uint8_t ss_crc(uint8_t *buf, uint8_t len)
  20:./simpleserial/simpleserial.c **** {
  21:./simpleserial/simpleserial.c **** 	unsigned int k = 0;
  22:./simpleserial/simpleserial.c **** 	uint8_t crc = 0x00;
  23:./simpleserial/simpleserial.c **** 	while (len--) {
  24:./simpleserial/simpleserial.c **** 		crc ^= *buf++;
  25:./simpleserial/simpleserial.c **** 		for (k = 0; k < 8; k++) {
  26:./simpleserial/simpleserial.c **** 			crc = crc & 0x80 ? (crc << 1) ^ 0xA6: crc << 1;
  27:./simpleserial/simpleserial.c **** 		}
  28:./simpleserial/simpleserial.c **** 	}
  29:./simpleserial/simpleserial.c **** 	return crc;
  30:./simpleserial/simpleserial.c **** 
  31:./simpleserial/simpleserial.c **** }
  32:./simpleserial/simpleserial.c **** 
  33:./simpleserial/simpleserial.c **** // [B_STUFF, CMD, SCMD, LEN, B_STUFF, DATA..., CRC, TERM]
  34:./simpleserial/simpleserial.c **** 
  35:./simpleserial/simpleserial.c **** //#define SS_VER SS_VER_2_0
  36:./simpleserial/simpleserial.c **** 
  37:./simpleserial/simpleserial.c **** #if SS_VER == SS_VER_2_0
  38:./simpleserial/simpleserial.c **** 
  39:./simpleserial/simpleserial.c **** 
  40:./simpleserial/simpleserial.c **** typedef struct ss_cmd
  41:./simpleserial/simpleserial.c **** {
  42:./simpleserial/simpleserial.c **** 	char c;
  43:./simpleserial/simpleserial.c **** 	unsigned int len;
  44:./simpleserial/simpleserial.c **** 	uint8_t (*fp)(uint8_t, uint8_t, uint8_t, uint8_t *);
  45:./simpleserial/simpleserial.c **** } ss_cmd;
  46:./simpleserial/simpleserial.c **** static ss_cmd commands[MAX_SS_CMDS];
  47:./simpleserial/simpleserial.c **** 
  48:./simpleserial/simpleserial.c **** void ss_puts(char *x)
  49:./simpleserial/simpleserial.c **** {
  50:./simpleserial/simpleserial.c **** 	do {
  51:./simpleserial/simpleserial.c **** 		putch(*x);
  52:./simpleserial/simpleserial.c **** 	} while (*++x);
  53:./simpleserial/simpleserial.c **** }
  54:./simpleserial/simpleserial.c **** 
  55:./simpleserial/simpleserial.c **** #define FRAME_BYTE 0x00
  56:./simpleserial/simpleserial.c **** 
  57:./simpleserial/simpleserial.c **** uint8_t check_version(uint8_t cmd, uint8_t scmd, uint8_t len, uint8_t *data)
  58:./simpleserial/simpleserial.c **** {
  59:./simpleserial/simpleserial.c **** 	uint8_t ver = SS_VER;
  60:./simpleserial/simpleserial.c **** 	simpleserial_put('r', 1, &ver);
  61:./simpleserial/simpleserial.c **** 	return SS_ERR_OK;
  62:./simpleserial/simpleserial.c **** }
  63:./simpleserial/simpleserial.c **** 
  64:./simpleserial/simpleserial.c **** uint8_t ss_get_commands(uint8_t cmd, uint8_t scmd, uint8_t len, uint8_t *data)
  65:./simpleserial/simpleserial.c **** {
  66:./simpleserial/simpleserial.c ****     uint8_t cmd_chars[MAX_SS_CMDS];
  67:./simpleserial/simpleserial.c ****     for (uint8_t i = 0; i < (num_commands & 0xFF); i++) {
  68:./simpleserial/simpleserial.c ****         cmd_chars[i] = commands[i].c;
  69:./simpleserial/simpleserial.c ****     }
  70:./simpleserial/simpleserial.c **** 
  71:./simpleserial/simpleserial.c ****     simpleserial_put('r', num_commands & 0xFF, cmd_chars);
  72:./simpleserial/simpleserial.c ****     return 0x00;
  73:./simpleserial/simpleserial.c **** 
  74:./simpleserial/simpleserial.c **** }
  75:./simpleserial/simpleserial.c **** 
  76:./simpleserial/simpleserial.c **** uint8_t stuff_data(uint8_t *buf, uint8_t len)
  77:./simpleserial/simpleserial.c **** {
  78:./simpleserial/simpleserial.c **** 	uint8_t i = 1;
  79:./simpleserial/simpleserial.c **** 	uint8_t last = 0;
  80:./simpleserial/simpleserial.c **** 	for (; i < len; i++) {
  81:./simpleserial/simpleserial.c **** 		if (buf[i] == FRAME_BYTE) {
  82:./simpleserial/simpleserial.c **** 			buf[last] = i - last;
  83:./simpleserial/simpleserial.c **** 			last = i;
  84:./simpleserial/simpleserial.c **** 		}
  85:./simpleserial/simpleserial.c **** 	}
  86:./simpleserial/simpleserial.c **** 	return 0x00;
  87:./simpleserial/simpleserial.c **** }
  88:./simpleserial/simpleserial.c **** 
  89:./simpleserial/simpleserial.c **** uint8_t unstuff_data(uint8_t *buf, uint8_t len)
  90:./simpleserial/simpleserial.c **** {
  91:./simpleserial/simpleserial.c **** 	uint8_t next = buf[0];
  92:./simpleserial/simpleserial.c **** 	buf[0] = 0x00;
  93:./simpleserial/simpleserial.c **** 	//len -= 1;
  94:./simpleserial/simpleserial.c **** 	uint8_t tmp = next;
  95:./simpleserial/simpleserial.c **** 	while ((next < len) && tmp != 0) {
  96:./simpleserial/simpleserial.c **** 		tmp = buf[next];
  97:./simpleserial/simpleserial.c **** 		buf[next] = FRAME_BYTE;
  98:./simpleserial/simpleserial.c **** 		next += tmp;
  99:./simpleserial/simpleserial.c **** 	}
 100:./simpleserial/simpleserial.c **** 	return next;
 101:./simpleserial/simpleserial.c **** }
 102:./simpleserial/simpleserial.c **** 
 103:./simpleserial/simpleserial.c **** // Set up the SimpleSerial module by preparing internal commands
 104:./simpleserial/simpleserial.c **** // This just adds the "v" command for now...
 105:./simpleserial/simpleserial.c **** void simpleserial_init()
 106:./simpleserial/simpleserial.c **** {
 107:./simpleserial/simpleserial.c **** 	simpleserial_addcmd('v', 0, check_version);
 108:./simpleserial/simpleserial.c ****     simpleserial_addcmd('w', 0, ss_get_commands);
 109:./simpleserial/simpleserial.c **** }
 110:./simpleserial/simpleserial.c **** 
 111:./simpleserial/simpleserial.c **** int simpleserial_addcmd(char c, unsigned int len, uint8_t (*fp)(uint8_t, uint8_t, uint8_t, uint8_t*
 112:./simpleserial/simpleserial.c **** {
 113:./simpleserial/simpleserial.c **** 	if(num_commands >= MAX_SS_CMDS) {
 114:./simpleserial/simpleserial.c **** 		putch('a');
 115:./simpleserial/simpleserial.c **** 		return 1;
 116:./simpleserial/simpleserial.c **** 	}
 117:./simpleserial/simpleserial.c **** 
 118:./simpleserial/simpleserial.c **** 	if(len >= MAX_SS_LEN) {
 119:./simpleserial/simpleserial.c **** 		putch('b');
 120:./simpleserial/simpleserial.c **** 		return 1;
 121:./simpleserial/simpleserial.c **** 	}
 122:./simpleserial/simpleserial.c **** 
 123:./simpleserial/simpleserial.c **** 	commands[num_commands].c   = c;
 124:./simpleserial/simpleserial.c **** 	commands[num_commands].len = len;
 125:./simpleserial/simpleserial.c **** 	commands[num_commands].fp  = fp;
 126:./simpleserial/simpleserial.c **** 	num_commands++;
 127:./simpleserial/simpleserial.c **** 
 128:./simpleserial/simpleserial.c **** 	return 0;
 129:./simpleserial/simpleserial.c **** }
 130:./simpleserial/simpleserial.c **** 
 131:./simpleserial/simpleserial.c **** void simpleserial_get(void)
 132:./simpleserial/simpleserial.c **** {
 133:./simpleserial/simpleserial.c **** 	uint8_t data_buf[MAX_SS_LEN];
 134:./simpleserial/simpleserial.c **** 	uint8_t err = 0;
 135:./simpleserial/simpleserial.c **** 
 136:./simpleserial/simpleserial.c **** 	for (int i = 0; i < 4; i++) {
 137:./simpleserial/simpleserial.c **** 		data_buf[i] = getch(); //PTR, cmd, scmd, len
 138:./simpleserial/simpleserial.c **** 		if (data_buf[i] == FRAME_BYTE) {
 139:./simpleserial/simpleserial.c **** 			err = SS_ERR_FRAME_BYTE;
 140:./simpleserial/simpleserial.c **** 			goto ERROR;
 141:./simpleserial/simpleserial.c **** 		}
 142:./simpleserial/simpleserial.c **** 	}
 143:./simpleserial/simpleserial.c **** 	uint8_t next_frame = unstuff_data(data_buf, 4);
 144:./simpleserial/simpleserial.c **** 
 145:./simpleserial/simpleserial.c **** 	// check for valid command
 146:./simpleserial/simpleserial.c **** 	uint8_t c = 0;
 147:./simpleserial/simpleserial.c **** 	for(c = 0; c < num_commands; c++)
 148:./simpleserial/simpleserial.c **** 	{
 149:./simpleserial/simpleserial.c **** 		if(commands[c].c == data_buf[1])
 150:./simpleserial/simpleserial.c **** 			break;
 151:./simpleserial/simpleserial.c **** 	}
 152:./simpleserial/simpleserial.c **** 
 153:./simpleserial/simpleserial.c **** 	if (c == num_commands) {
 154:./simpleserial/simpleserial.c **** 		err = SS_ERR_CMD;
 155:./simpleserial/simpleserial.c **** 		goto ERROR;
 156:./simpleserial/simpleserial.c **** 	}
 157:./simpleserial/simpleserial.c **** 
 158:./simpleserial/simpleserial.c **** 	//check that next frame not beyond end of message
 159:./simpleserial/simpleserial.c **** 	// account for cmd, scmd, len, data, crc, end of frame
 160:./simpleserial/simpleserial.c **** 	if ((data_buf[3] + 5) < next_frame) {
 161:./simpleserial/simpleserial.c **** 		err = SS_ERR_LEN;
 162:./simpleserial/simpleserial.c **** 		goto ERROR;
 163:./simpleserial/simpleserial.c **** 	}
 164:./simpleserial/simpleserial.c **** 
 165:./simpleserial/simpleserial.c **** 	// read in data
 166:./simpleserial/simpleserial.c **** 	// eq to len + crc + frame end
 167:./simpleserial/simpleserial.c **** 	int i = 4;
 168:./simpleserial/simpleserial.c **** 	for (; i < data_buf[3] + 5; i++) {
 169:./simpleserial/simpleserial.c **** 		data_buf[i] = getch();
 170:./simpleserial/simpleserial.c **** 		if (data_buf[i] == FRAME_BYTE) {
 171:./simpleserial/simpleserial.c **** 			err = SS_ERR_FRAME_BYTE;
 172:./simpleserial/simpleserial.c **** 			goto ERROR;
 173:./simpleserial/simpleserial.c **** 		}
 174:./simpleserial/simpleserial.c **** 	}
 175:./simpleserial/simpleserial.c **** 
 176:./simpleserial/simpleserial.c **** 	//check that final byte is the FRAME_BYTE
 177:./simpleserial/simpleserial.c **** 	data_buf[i] = getch();
 178:./simpleserial/simpleserial.c **** 	if (data_buf[i] != FRAME_BYTE) {
 179:./simpleserial/simpleserial.c **** 		err = SS_ERR_LEN;
 180:./simpleserial/simpleserial.c **** 		goto ERROR;
 181:./simpleserial/simpleserial.c **** 	}
 182:./simpleserial/simpleserial.c **** 
 183:./simpleserial/simpleserial.c **** 	//fully unstuff data now
 184:./simpleserial/simpleserial.c **** 	unstuff_data(data_buf + next_frame, i - next_frame + 1);
 185:./simpleserial/simpleserial.c **** 
 186:./simpleserial/simpleserial.c **** 	//calc crc excluding original frame offset and frame end and crc
 187:./simpleserial/simpleserial.c **** 	uint8_t crc = ss_crc(data_buf+1, i-2);
 188:./simpleserial/simpleserial.c **** 	if (crc != data_buf[i-1]) {
 189:./simpleserial/simpleserial.c **** 		err = SS_ERR_CRC;
 190:./simpleserial/simpleserial.c **** 		goto ERROR;
 191:./simpleserial/simpleserial.c **** 	}
 192:./simpleserial/simpleserial.c **** 
 193:./simpleserial/simpleserial.c **** 	err = commands[c].fp(data_buf[1], data_buf[2], data_buf[3], data_buf+4);
 194:./simpleserial/simpleserial.c **** 
 195:./simpleserial/simpleserial.c **** ERROR:
 196:./simpleserial/simpleserial.c **** 	simpleserial_put('e', 0x01, &err);
 197:./simpleserial/simpleserial.c **** 	return;
 198:./simpleserial/simpleserial.c **** }
 199:./simpleserial/simpleserial.c **** 
 200:./simpleserial/simpleserial.c **** void simpleserial_put(char c, uint8_t size, uint8_t* output)
 201:./simpleserial/simpleserial.c **** {
 202:./simpleserial/simpleserial.c **** 	uint8_t data_buf[MAX_SS_LEN];
 203:./simpleserial/simpleserial.c **** 	data_buf[0] = 0x00;
 204:./simpleserial/simpleserial.c **** 	data_buf[1] = c;
 205:./simpleserial/simpleserial.c **** 	data_buf[2] = size;
 206:./simpleserial/simpleserial.c **** 	int i = 0;
 207:./simpleserial/simpleserial.c **** 	for (; i < size; i++) {
 208:./simpleserial/simpleserial.c **** 		data_buf[i + 3] = output[i];
 209:./simpleserial/simpleserial.c **** 	}
 210:./simpleserial/simpleserial.c **** 	data_buf[i + 3] = ss_crc(data_buf+1, size+2);
 211:./simpleserial/simpleserial.c **** 	data_buf[i + 4] = 0x00;
 212:./simpleserial/simpleserial.c **** 	stuff_data(data_buf, i + 5);
 213:./simpleserial/simpleserial.c **** 	for (int i = 0; i < size + 5; i++) {
 214:./simpleserial/simpleserial.c **** 		putch(data_buf[i]);
 215:./simpleserial/simpleserial.c **** 	}
 216:./simpleserial/simpleserial.c **** }
 217:./simpleserial/simpleserial.c **** 
 218:./simpleserial/simpleserial.c **** 
 219:./simpleserial/simpleserial.c **** #else
 220:./simpleserial/simpleserial.c **** 
 221:./simpleserial/simpleserial.c **** typedef struct ss_cmd
 222:./simpleserial/simpleserial.c **** {
 223:./simpleserial/simpleserial.c **** 	char c;
 224:./simpleserial/simpleserial.c **** 	unsigned int len;
 225:./simpleserial/simpleserial.c **** 	uint8_t (*fp)(uint8_t*, uint8_t);
 226:./simpleserial/simpleserial.c **** 	uint8_t flags;
 227:./simpleserial/simpleserial.c **** } ss_cmd;
 228:./simpleserial/simpleserial.c **** static ss_cmd commands[MAX_SS_CMDS];
 229:./simpleserial/simpleserial.c **** // Callback function for "v" command.
 230:./simpleserial/simpleserial.c **** // This can exist in v1.0 as long as we don't actually send back an ack ("z")
 231:./simpleserial/simpleserial.c **** uint8_t check_version(uint8_t *v, uint8_t len)
 232:./simpleserial/simpleserial.c **** {
  18               		.loc 1 232 1 view -0
  19               		.cfi_startproc
  20               	/* prologue: function */
  21               	/* frame size = 0 */
  22               	/* stack size = 0 */
  23               	.L__stack_usage = 0
 233:./simpleserial/simpleserial.c **** 	return SS_VER;
  24               		.loc 1 233 2 view .LVU1
 234:./simpleserial/simpleserial.c **** }
  25               		.loc 1 234 1 is_stmt 0 view .LVU2
  26 0000 81E0      		ldi r24,lo8(1)
  27               	.LVL1:
  28               	/* epilogue start */
  29               		.loc 1 234 1 view .LVU3
  30 0002 0895      		ret
  31               		.cfi_endproc
  32               	.LFE16:
  34               	.global	ss_crc
  36               	ss_crc:
  37               	.LVL2:
  38               	.LFB15:
  20:./simpleserial/simpleserial.c **** 	unsigned int k = 0;
  39               		.loc 1 20 1 is_stmt 1 view -0
  40               		.cfi_startproc
  41               	/* prologue: function */
  42               	/* frame size = 0 */
  43               	/* stack size = 0 */
  44               	.L__stack_usage = 0
  20:./simpleserial/simpleserial.c **** 	unsigned int k = 0;
  45               		.loc 1 20 1 is_stmt 0 view .LVU5
  46 0004 282F      		mov r18,r24
  21:./simpleserial/simpleserial.c **** 	uint8_t crc = 0x00;
  47               		.loc 1 21 2 is_stmt 1 view .LVU6
  48               	.LVL3:
  22:./simpleserial/simpleserial.c **** 	while (len--) {
  49               		.loc 1 22 2 view .LVU7
  23:./simpleserial/simpleserial.c **** 		crc ^= *buf++;
  50               		.loc 1 23 2 view .LVU8
  22:./simpleserial/simpleserial.c **** 	while (len--) {
  51               		.loc 1 22 10 is_stmt 0 view .LVU9
  52 0006 80E0      		ldi r24,0
  53               	.LVL4:
  26:./simpleserial/simpleserial.c **** 		}
  54               		.loc 1 26 34 view .LVU10
  55 0008 46EA      		ldi r20,lo8(-90)
  56               	.LVL5:
  57               	.L3:
  23:./simpleserial/simpleserial.c **** 		crc ^= *buf++;
  58               		.loc 1 23 8 is_stmt 1 view .LVU11
  23:./simpleserial/simpleserial.c **** 		crc ^= *buf++;
  59               		.loc 1 23 12 is_stmt 0 view .LVU12
  60               	.LVL6:
  61 000a 6150      		subi r22,1
  62 000c 00F4      		brcc .L7
  63               	/* epilogue start */
  31:./simpleserial/simpleserial.c **** 
  64               		.loc 1 31 1 view .LVU13
  65 000e 0895      		ret
  66               	.L7:
  24:./simpleserial/simpleserial.c **** 		for (k = 0; k < 8; k++) {
  67               		.loc 1 24 3 is_stmt 1 view .LVU14
  24:./simpleserial/simpleserial.c **** 		for (k = 0; k < 8; k++) {
  68               		.loc 1 24 14 is_stmt 0 view .LVU15
  69 0010 E22F      		mov r30,r18
  70 0012 F92F      		mov r31,r25
  71               	.LVL7:
  24:./simpleserial/simpleserial.c **** 		for (k = 0; k < 8; k++) {
  72               		.loc 1 24 7 view .LVU16
  73 0014 9191      		ld r25,Z+
  74               	.LVL8:
  24:./simpleserial/simpleserial.c **** 		for (k = 0; k < 8; k++) {
  75               		.loc 1 24 7 view .LVU17
  76 0016 8927      		eor r24,r25
  77               	.LVL9:
  25:./simpleserial/simpleserial.c **** 			crc = crc & 0x80 ? (crc << 1) ^ 0xA6: crc << 1;
  78               		.loc 1 25 3 is_stmt 1 view .LVU18
  25:./simpleserial/simpleserial.c **** 			crc = crc & 0x80 ? (crc << 1) ^ 0xA6: crc << 1;
  79               		.loc 1 25 15 view .LVU19
  24:./simpleserial/simpleserial.c **** 		for (k = 0; k < 8; k++) {
  80               		.loc 1 24 7 is_stmt 0 view .LVU20
  81 0018 28E0      		ldi r18,lo8(8)
  82 001a 30E0      		ldi r19,0
  83               	.LVL10:
  84               	.L6:
  26:./simpleserial/simpleserial.c **** 		}
  85               		.loc 1 26 4 is_stmt 1 view .LVU21
  26:./simpleserial/simpleserial.c **** 		}
  86               		.loc 1 26 8 is_stmt 0 view .LVU22
  87 001c 87FF      		sbrs r24,7
  88 001e 00C0      		rjmp .L4
  26:./simpleserial/simpleserial.c **** 		}
  89               		.loc 1 26 28 discriminator 1 view .LVU23
  90 0020 880F      		lsl r24
  91               	.LVL11:
  26:./simpleserial/simpleserial.c **** 		}
  92               		.loc 1 26 34 discriminator 1 view .LVU24
  93 0022 8427      		eor r24,r20
  94               	.L5:
  95               	.LVL12:
  25:./simpleserial/simpleserial.c **** 			crc = crc & 0x80 ? (crc << 1) ^ 0xA6: crc << 1;
  96               		.loc 1 25 22 is_stmt 1 discriminator 4 view .LVU25
  25:./simpleserial/simpleserial.c **** 			crc = crc & 0x80 ? (crc << 1) ^ 0xA6: crc << 1;
  97               		.loc 1 25 15 discriminator 4 view .LVU26
  98 0024 2150      		subi r18,1
  99 0026 3109      		sbc r19,__zero_reg__
 100               	.LVL13:
  25:./simpleserial/simpleserial.c **** 			crc = crc & 0x80 ? (crc << 1) ^ 0xA6: crc << 1;
 101               		.loc 1 25 3 is_stmt 0 discriminator 4 view .LVU27
 102 0028 01F4      		brne .L6
  24:./simpleserial/simpleserial.c **** 		for (k = 0; k < 8; k++) {
 103               		.loc 1 24 14 view .LVU28
 104 002a 2E2F      		mov r18,r30
 105               	.LVL14:
  24:./simpleserial/simpleserial.c **** 		for (k = 0; k < 8; k++) {
 106               		.loc 1 24 14 view .LVU29
 107 002c 9F2F      		mov r25,r31
 108 002e 00C0      		rjmp .L3
 109               	.LVL15:
 110               	.L4:
  26:./simpleserial/simpleserial.c **** 		}
 111               		.loc 1 26 8 discriminator 2 view .LVU30
 112 0030 880F      		lsl r24
 113               	.LVL16:
  26:./simpleserial/simpleserial.c **** 		}
 114               		.loc 1 26 8 discriminator 2 view .LVU31
 115 0032 00C0      		rjmp .L5
 116               		.cfi_endproc
 117               	.LFE15:
 119               	.global	hex_decode
 121               	hex_decode:
 122               	.LVL17:
 123               	.LFB19:
 235:./simpleserial/simpleserial.c **** 
 236:./simpleserial/simpleserial.c **** uint8_t ss_num_commands(uint8_t *x, uint8_t len)
 237:./simpleserial/simpleserial.c **** {
 238:./simpleserial/simpleserial.c ****     uint8_t ncmds = num_commands & 0xFF;
 239:./simpleserial/simpleserial.c ****     simpleserial_put('r', 0x01, &ncmds);
 240:./simpleserial/simpleserial.c ****     return 0x00;
 241:./simpleserial/simpleserial.c **** }
 242:./simpleserial/simpleserial.c **** 
 243:./simpleserial/simpleserial.c **** typedef struct ss_cmd_repr {
 244:./simpleserial/simpleserial.c ****     uint8_t c;
 245:./simpleserial/simpleserial.c ****     uint8_t len;
 246:./simpleserial/simpleserial.c ****     uint8_t flags;
 247:./simpleserial/simpleserial.c **** } ss_cmd_repr;
 248:./simpleserial/simpleserial.c **** 
 249:./simpleserial/simpleserial.c **** uint8_t ss_get_commands(uint8_t *x, uint8_t len)
 250:./simpleserial/simpleserial.c **** {
 251:./simpleserial/simpleserial.c ****     ss_cmd_repr repr_cmd_buf[MAX_SS_CMDS];
 252:./simpleserial/simpleserial.c ****     for (uint8_t i = 0; i < (num_commands & 0xFF); i++) {
 253:./simpleserial/simpleserial.c ****         repr_cmd_buf[i].c = commands[i].c;
 254:./simpleserial/simpleserial.c ****         repr_cmd_buf[i].len = commands[i].len;
 255:./simpleserial/simpleserial.c ****         repr_cmd_buf[i].flags = commands[i].flags;
 256:./simpleserial/simpleserial.c ****     }
 257:./simpleserial/simpleserial.c **** 
 258:./simpleserial/simpleserial.c ****     simpleserial_put('r', num_commands * 0x03, &repr_cmd_buf);
 259:./simpleserial/simpleserial.c ****     return 0x00;
 260:./simpleserial/simpleserial.c **** }
 261:./simpleserial/simpleserial.c **** 
 262:./simpleserial/simpleserial.c **** static char hex_lookup[16] =
 263:./simpleserial/simpleserial.c **** {
 264:./simpleserial/simpleserial.c **** 	'0', '1', '2', '3', '4', '5', '6', '7',
 265:./simpleserial/simpleserial.c **** 	'8', '9', 'A', 'B', 'C', 'D', 'E', 'F'
 266:./simpleserial/simpleserial.c **** };
 267:./simpleserial/simpleserial.c **** 
 268:./simpleserial/simpleserial.c **** int hex_decode(int len, char* ascii_buf, uint8_t* data_buf)
 269:./simpleserial/simpleserial.c **** {
 124               		.loc 1 269 1 is_stmt 1 view -0
 125               		.cfi_startproc
 126               	/* prologue: function */
 127               	/* frame size = 0 */
 128               	/* stack size = 0 */
 129               	.L__stack_usage = 0
 130               		.loc 1 269 1 is_stmt 0 view .LVU33
 131 0034 9C01      		movw r18,r24
 132 0036 FA01      		movw r30,r20
 270:./simpleserial/simpleserial.c **** 	for(int i = 0; i < len; i++)
 133               		.loc 1 270 2 is_stmt 1 view .LVU34
 134               	.LBB2:
 135               		.loc 1 270 6 view .LVU35
 136               	.LVL18:
 137               		.loc 1 270 6 is_stmt 0 view .LVU36
 138 0038 DB01      		movw r26,r22
 139               		.loc 1 270 10 view .LVU37
 140 003a 50E0      		ldi r21,0
 141 003c 40E0      		ldi r20,0
 142               	.LVL19:
 143               	.L10:
 144               		.loc 1 270 17 is_stmt 1 discriminator 1 view .LVU38
 145               		.loc 1 270 2 is_stmt 0 discriminator 1 view .LVU39
 146 003e 4217      		cp r20,r18
 147 0040 5307      		cpc r21,r19
 148 0042 04F0      		brlt .L20
 149               	.LBE2:
 271:./simpleserial/simpleserial.c **** 	{
 272:./simpleserial/simpleserial.c **** 		char n_hi = ascii_buf[2*i];
 273:./simpleserial/simpleserial.c **** 		char n_lo = ascii_buf[2*i+1];
 274:./simpleserial/simpleserial.c **** 
 275:./simpleserial/simpleserial.c **** 		if(n_lo >= '0' && n_lo <= '9')
 276:./simpleserial/simpleserial.c **** 			data_buf[i] = n_lo - '0';
 277:./simpleserial/simpleserial.c **** 		else if(n_lo >= 'A' && n_lo <= 'F')
 278:./simpleserial/simpleserial.c **** 			data_buf[i] = n_lo - 'A' + 10;
 279:./simpleserial/simpleserial.c **** 		else if(n_lo >= 'a' && n_lo <= 'f')
 280:./simpleserial/simpleserial.c **** 			data_buf[i] = n_lo - 'a' + 10;
 281:./simpleserial/simpleserial.c **** 		else
 282:./simpleserial/simpleserial.c **** 			return 1;
 283:./simpleserial/simpleserial.c **** 
 284:./simpleserial/simpleserial.c **** 		if(n_hi >= '0' && n_hi <= '9')
 285:./simpleserial/simpleserial.c **** 			data_buf[i] |= (n_hi - '0') << 4;
 286:./simpleserial/simpleserial.c **** 		else if(n_hi >= 'A' && n_hi <= 'F')
 287:./simpleserial/simpleserial.c **** 			data_buf[i] |= (n_hi - 'A' + 10) << 4;
 288:./simpleserial/simpleserial.c **** 		else if(n_hi >= 'a' && n_hi <= 'f')
 289:./simpleserial/simpleserial.c **** 			data_buf[i] |= (n_hi - 'a' + 10) << 4;
 290:./simpleserial/simpleserial.c **** 		else
 291:./simpleserial/simpleserial.c **** 			return 1;
 292:./simpleserial/simpleserial.c **** 	}
 293:./simpleserial/simpleserial.c **** 
 294:./simpleserial/simpleserial.c **** 	return 0;
 150               		.loc 1 294 9 view .LVU40
 151 0044 90E0      		ldi r25,0
 152 0046 80E0      		ldi r24,0
 153               	/* epilogue start */
 295:./simpleserial/simpleserial.c **** }
 154               		.loc 1 295 1 view .LVU41
 155 0048 0895      		ret
 156               	.L20:
 157               	.LBB5:
 158               	.LBB3:
 272:./simpleserial/simpleserial.c **** 		char n_lo = ascii_buf[2*i+1];
 159               		.loc 1 272 3 is_stmt 1 view .LVU42
 272:./simpleserial/simpleserial.c **** 		char n_lo = ascii_buf[2*i+1];
 160               		.loc 1 272 8 is_stmt 0 view .LVU43
 161 004a 8C91      		ld r24,X
 162               	.LVL20:
 273:./simpleserial/simpleserial.c **** 
 163               		.loc 1 273 3 is_stmt 1 view .LVU44
 273:./simpleserial/simpleserial.c **** 
 164               		.loc 1 273 8 is_stmt 0 view .LVU45
 165 004c 1196      		adiw r26,1
 166 004e 9C91      		ld r25,X
 167 0050 1197      		sbiw r26,1
 168               	.LVL21:
 275:./simpleserial/simpleserial.c **** 			data_buf[i] = n_lo - '0';
 169               		.loc 1 275 3 is_stmt 1 view .LVU46
 275:./simpleserial/simpleserial.c **** 			data_buf[i] = n_lo - '0';
 170               		.loc 1 275 18 is_stmt 0 view .LVU47
 171 0052 60ED      		ldi r22,lo8(-48)
 172 0054 690F      		add r22,r25
 275:./simpleserial/simpleserial.c **** 			data_buf[i] = n_lo - '0';
 173               		.loc 1 275 5 view .LVU48
 174 0056 6A30      		cpi r22,lo8(10)
 175 0058 00F4      		brsh .L11
 276:./simpleserial/simpleserial.c **** 		else if(n_lo >= 'A' && n_lo <= 'F')
 176               		.loc 1 276 4 is_stmt 1 view .LVU49
 276:./simpleserial/simpleserial.c **** 		else if(n_lo >= 'A' && n_lo <= 'F')
 177               		.loc 1 276 16 is_stmt 0 view .LVU50
 178 005a 6083      		st Z,r22
 179               	.LVL22:
 180               	.L12:
 284:./simpleserial/simpleserial.c **** 			data_buf[i] |= (n_hi - '0') << 4;
 181               		.loc 1 284 3 is_stmt 1 view .LVU51
 284:./simpleserial/simpleserial.c **** 			data_buf[i] |= (n_hi - '0') << 4;
 182               		.loc 1 284 18 is_stmt 0 view .LVU52
 183 005c 90ED      		ldi r25,lo8(-48)
 184 005e 980F      		add r25,r24
 284:./simpleserial/simpleserial.c **** 			data_buf[i] |= (n_hi - '0') << 4;
 185               		.loc 1 284 5 view .LVU53
 186 0060 9A30      		cpi r25,lo8(10)
 187 0062 00F4      		brsh .L16
 285:./simpleserial/simpleserial.c **** 		else if(n_hi >= 'A' && n_hi <= 'F')
 188               		.loc 1 285 4 is_stmt 1 view .LVU54
 285:./simpleserial/simpleserial.c **** 		else if(n_hi >= 'A' && n_hi <= 'F')
 189               		.loc 1 285 32 is_stmt 0 view .LVU55
 190 0064 8295      		swap r24
 191               	.LVL23:
 285:./simpleserial/simpleserial.c **** 		else if(n_hi >= 'A' && n_hi <= 'F')
 192               		.loc 1 285 32 view .LVU56
 193 0066 807F      		andi r24,lo8(-16)
 194               	.L22:
 289:./simpleserial/simpleserial.c **** 		else
 195               		.loc 1 289 16 view .LVU57
 196 0068 9081      		ld r25,Z
 197 006a 892B      		or r24,r25
 198 006c 8083      		st Z,r24
 199               	.LBE3:
 270:./simpleserial/simpleserial.c **** 	{
 200               		.loc 1 270 26 is_stmt 1 view .LVU58
 270:./simpleserial/simpleserial.c **** 	{
 201               		.loc 1 270 27 is_stmt 0 view .LVU59
 202 006e 4F5F      		subi r20,-1
 203 0070 5F4F      		sbci r21,-1
 204               	.LVL24:
 270:./simpleserial/simpleserial.c **** 	{
 205               		.loc 1 270 27 view .LVU60
 206 0072 3196      		adiw r30,1
 207 0074 1296      		adiw r26,2
 208 0076 00C0      		rjmp .L10
 209               	.LVL25:
 210               	.L11:
 211               	.LBB4:
 277:./simpleserial/simpleserial.c **** 			data_buf[i] = n_lo - 'A' + 10;
 212               		.loc 1 277 8 is_stmt 1 view .LVU61
 277:./simpleserial/simpleserial.c **** 			data_buf[i] = n_lo - 'A' + 10;
 213               		.loc 1 277 23 is_stmt 0 view .LVU62
 214 0078 6FEB      		ldi r22,lo8(-65)
 215 007a 690F      		add r22,r25
 277:./simpleserial/simpleserial.c **** 			data_buf[i] = n_lo - 'A' + 10;
 216               		.loc 1 277 10 view .LVU63
 217 007c 6630      		cpi r22,lo8(6)
 218 007e 00F4      		brsh .L13
 278:./simpleserial/simpleserial.c **** 		else if(n_lo >= 'a' && n_lo <= 'f')
 219               		.loc 1 278 4 is_stmt 1 view .LVU64
 278:./simpleserial/simpleserial.c **** 		else if(n_lo >= 'a' && n_lo <= 'f')
 220               		.loc 1 278 29 is_stmt 0 view .LVU65
 221 0080 9753      		subi r25,lo8(-(-55))
 222               	.LVL26:
 223               	.L21:
 280:./simpleserial/simpleserial.c **** 		else
 224               		.loc 1 280 16 view .LVU66
 225 0082 9083      		st Z,r25
 226               	.LVL27:
 280:./simpleserial/simpleserial.c **** 		else
 227               		.loc 1 280 16 view .LVU67
 228 0084 00C0      		rjmp .L12
 229               	.LVL28:
 230               	.L13:
 279:./simpleserial/simpleserial.c **** 			data_buf[i] = n_lo - 'a' + 10;
 231               		.loc 1 279 8 is_stmt 1 view .LVU68
 279:./simpleserial/simpleserial.c **** 			data_buf[i] = n_lo - 'a' + 10;
 232               		.loc 1 279 23 is_stmt 0 view .LVU69
 233 0086 6FE9      		ldi r22,lo8(-97)
 234 0088 690F      		add r22,r25
 279:./simpleserial/simpleserial.c **** 			data_buf[i] = n_lo - 'a' + 10;
 235               		.loc 1 279 10 view .LVU70
 236 008a 6630      		cpi r22,lo8(6)
 237 008c 00F0      		brlo .L14
 238               	.LVL29:
 239               	.L19:
 282:./simpleserial/simpleserial.c **** 
 240               		.loc 1 282 11 view .LVU71
 241 008e 81E0      		ldi r24,lo8(1)
 242 0090 90E0      		ldi r25,0
 243               	.LVL30:
 282:./simpleserial/simpleserial.c **** 
 244               		.loc 1 282 11 view .LVU72
 245 0092 0895      		ret
 246               	.LVL31:
 247               	.L14:
 280:./simpleserial/simpleserial.c **** 		else
 248               		.loc 1 280 4 is_stmt 1 view .LVU73
 280:./simpleserial/simpleserial.c **** 		else
 249               		.loc 1 280 29 is_stmt 0 view .LVU74
 250 0094 9755      		subi r25,lo8(-(-87))
 251               	.LVL32:
 280:./simpleserial/simpleserial.c **** 		else
 252               		.loc 1 280 29 view .LVU75
 253 0096 00C0      		rjmp .L21
 254               	.LVL33:
 255               	.L16:
 286:./simpleserial/simpleserial.c **** 			data_buf[i] |= (n_hi - 'A' + 10) << 4;
 256               		.loc 1 286 8 is_stmt 1 view .LVU76
 286:./simpleserial/simpleserial.c **** 			data_buf[i] |= (n_hi - 'A' + 10) << 4;
 257               		.loc 1 286 23 is_stmt 0 view .LVU77
 258 0098 9FEB      		ldi r25,lo8(-65)
 259 009a 980F      		add r25,r24
 286:./simpleserial/simpleserial.c **** 			data_buf[i] |= (n_hi - 'A' + 10) << 4;
 260               		.loc 1 286 10 view .LVU78
 261 009c 9630      		cpi r25,lo8(6)
 262 009e 00F4      		brsh .L18
 287:./simpleserial/simpleserial.c **** 		else if(n_hi >= 'a' && n_hi <= 'f')
 263               		.loc 1 287 4 is_stmt 1 view .LVU79
 287:./simpleserial/simpleserial.c **** 		else if(n_hi >= 'a' && n_hi <= 'f')
 264               		.loc 1 287 31 is_stmt 0 view .LVU80
 265 00a0 8753      		subi r24,55
 266 00a2 990B      		sbc r25,r25
 267               	.LVL34:
 268               	.L23:
 289:./simpleserial/simpleserial.c **** 		else
 269               		.loc 1 289 37 view .LVU81
 270 00a4 64E0      		ldi r22,4
 271               		1:
 272 00a6 880F      		lsl r24
 273 00a8 991F      		rol r25
 274 00aa 6A95      		dec r22
 275 00ac 01F4      		brne 1b
 276 00ae 00C0      		rjmp .L22
 277               	.LVL35:
 278               	.L18:
 288:./simpleserial/simpleserial.c **** 			data_buf[i] |= (n_hi - 'a' + 10) << 4;
 279               		.loc 1 288 8 is_stmt 1 view .LVU82
 288:./simpleserial/simpleserial.c **** 			data_buf[i] |= (n_hi - 'a' + 10) << 4;
 280               		.loc 1 288 23 is_stmt 0 view .LVU83
 281 00b0 9FE9      		ldi r25,lo8(-97)
 282 00b2 980F      		add r25,r24
 288:./simpleserial/simpleserial.c **** 			data_buf[i] |= (n_hi - 'a' + 10) << 4;
 283               		.loc 1 288 10 view .LVU84
 284 00b4 9630      		cpi r25,lo8(6)
 285 00b6 00F4      		brsh .L19
 289:./simpleserial/simpleserial.c **** 		else
 286               		.loc 1 289 4 is_stmt 1 view .LVU85
 289:./simpleserial/simpleserial.c **** 		else
 287               		.loc 1 289 31 is_stmt 0 view .LVU86
 288 00b8 8755      		subi r24,87
 289 00ba 990B      		sbc r25,r25
 290               	.LVL36:
 289:./simpleserial/simpleserial.c **** 		else
 291               		.loc 1 289 31 view .LVU87
 292 00bc 00C0      		rjmp .L23
 293               	.LBE4:
 294               	.LBE5:
 295               		.cfi_endproc
 296               	.LFE19:
 298               	.global	simpleserial_addcmd_flags
 300               	simpleserial_addcmd_flags:
 301               	.LVL37:
 302               	.LFB22:
 296:./simpleserial/simpleserial.c **** 
 297:./simpleserial/simpleserial.c **** 
 298:./simpleserial/simpleserial.c **** 
 299:./simpleserial/simpleserial.c **** // Set up the SimpleSerial module by preparing internal commands
 300:./simpleserial/simpleserial.c **** // This just adds the "v" command for now...
 301:./simpleserial/simpleserial.c **** void simpleserial_init()
 302:./simpleserial/simpleserial.c **** {
 303:./simpleserial/simpleserial.c **** 	simpleserial_addcmd('v', 0, check_version);
 304:./simpleserial/simpleserial.c ****     simpleserial_addcmd('w', 0, ss_get_commands);
 305:./simpleserial/simpleserial.c ****     simpleserial_addcmd('y', 0, ss_num_commands);
 306:./simpleserial/simpleserial.c **** }
 307:./simpleserial/simpleserial.c **** 
 308:./simpleserial/simpleserial.c **** int simpleserial_addcmd(char c, unsigned int len, uint8_t (*fp)(uint8_t*, uint8_t))
 309:./simpleserial/simpleserial.c **** {
 310:./simpleserial/simpleserial.c **** 	return simpleserial_addcmd_flags(c, len, fp, CMD_FLAG_NONE);
 311:./simpleserial/simpleserial.c **** }
 312:./simpleserial/simpleserial.c **** 
 313:./simpleserial/simpleserial.c **** int simpleserial_addcmd_flags(char c, unsigned int len, uint8_t (*fp)(uint8_t*, uint8_t), uint8_t f
 314:./simpleserial/simpleserial.c **** {
 303               		.loc 1 314 1 is_stmt 1 view -0
 304               		.cfi_startproc
 305               	/* prologue: function */
 306               	/* frame size = 0 */
 307               	/* stack size = 0 */
 308               	.L__stack_usage = 0
 309               		.loc 1 314 1 is_stmt 0 view .LVU89
 310 00be DB01      		movw r26,r22
 315:./simpleserial/simpleserial.c **** 	if(num_commands >= MAX_SS_CMDS)
 311               		.loc 1 315 2 is_stmt 1 view .LVU90
 312               		.loc 1 315 18 is_stmt 0 view .LVU91
 313 00c0 6091 0000 		lds r22,num_commands
 314 00c4 7091 0000 		lds r23,num_commands+1
 315               	.LVL38:
 316               		.loc 1 315 4 view .LVU92
 317 00c8 6031      		cpi r22,16
 318 00ca 7105      		cpc r23,__zero_reg__
 319 00cc 04F4      		brge .L27
 316:./simpleserial/simpleserial.c **** 		return 1;
 317:./simpleserial/simpleserial.c **** 
 318:./simpleserial/simpleserial.c **** 	if(len >= MAX_SS_LEN)
 320               		.loc 1 318 2 is_stmt 1 view .LVU93
 321               		.loc 1 318 4 is_stmt 0 view .LVU94
 322 00ce A03C      		cpi r26,-64
 323 00d0 B105      		cpc r27,__zero_reg__
 324 00d2 00F4      		brsh .L27
 319:./simpleserial/simpleserial.c **** 		return 1;
 320:./simpleserial/simpleserial.c **** 
 321:./simpleserial/simpleserial.c **** 	commands[num_commands].c   = c;
 325               		.loc 1 321 2 is_stmt 1 view .LVU95
 326               		.loc 1 321 29 is_stmt 0 view .LVU96
 327 00d4 96E0      		ldi r25,lo8(6)
 328 00d6 969F      		mul r25,r22
 329 00d8 F001      		movw r30,r0
 330 00da 979F      		mul r25,r23
 331 00dc F00D      		add r31,r0
 332 00de 1124      		clr __zero_reg__
 333 00e0 E050      		subi r30,lo8(-(commands))
 334 00e2 F040      		sbci r31,hi8(-(commands))
 335 00e4 8083      		st Z,r24
 322:./simpleserial/simpleserial.c **** 	commands[num_commands].len = len;
 336               		.loc 1 322 2 is_stmt 1 view .LVU97
 337               		.loc 1 322 29 is_stmt 0 view .LVU98
 338 00e6 A183      		std Z+1,r26
 339 00e8 B283      		std Z+2,r27
 323:./simpleserial/simpleserial.c **** 	commands[num_commands].fp  = fp;
 340               		.loc 1 323 2 is_stmt 1 view .LVU99
 341               		.loc 1 323 29 is_stmt 0 view .LVU100
 342 00ea 4383      		std Z+3,r20
 343 00ec 5483      		std Z+4,r21
 324:./simpleserial/simpleserial.c **** 	commands[num_commands].flags = fl;
 344               		.loc 1 324 2 is_stmt 1 view .LVU101
 345               		.loc 1 324 31 is_stmt 0 view .LVU102
 346 00ee 2583      		std Z+5,r18
 325:./simpleserial/simpleserial.c **** 	num_commands++;
 347               		.loc 1 325 2 is_stmt 1 view .LVU103
 348               		.loc 1 325 14 is_stmt 0 view .LVU104
 349 00f0 6F5F      		subi r22,-1
 350 00f2 7F4F      		sbci r23,-1
 351 00f4 6093 0000 		sts num_commands,r22
 352 00f8 7093 0000 		sts num_commands+1,r23
 326:./simpleserial/simpleserial.c **** 
 327:./simpleserial/simpleserial.c **** 	return 0;
 353               		.loc 1 327 2 is_stmt 1 view .LVU105
 354               		.loc 1 327 9 is_stmt 0 view .LVU106
 355 00fc 90E0      		ldi r25,0
 356 00fe 80E0      		ldi r24,0
 357               	.LVL39:
 358               		.loc 1 327 9 view .LVU107
 359 0100 0895      		ret
 360               	.LVL40:
 361               	.L27:
 316:./simpleserial/simpleserial.c **** 
 362               		.loc 1 316 10 view .LVU108
 363 0102 81E0      		ldi r24,lo8(1)
 364 0104 90E0      		ldi r25,0
 365               	.LVL41:
 366               	/* epilogue start */
 328:./simpleserial/simpleserial.c **** }
 367               		.loc 1 328 1 view .LVU109
 368 0106 0895      		ret
 369               		.cfi_endproc
 370               	.LFE22:
 372               	.global	simpleserial_addcmd
 374               	simpleserial_addcmd:
 375               	.LVL42:
 376               	.LFB21:
 309:./simpleserial/simpleserial.c **** 	return simpleserial_addcmd_flags(c, len, fp, CMD_FLAG_NONE);
 377               		.loc 1 309 1 is_stmt 1 view -0
 378               		.cfi_startproc
 379               	/* prologue: function */
 380               	/* frame size = 0 */
 381               	/* stack size = 0 */
 382               	.L__stack_usage = 0
 310:./simpleserial/simpleserial.c **** }
 383               		.loc 1 310 2 view .LVU111
 310:./simpleserial/simpleserial.c **** }
 384               		.loc 1 310 9 is_stmt 0 view .LVU112
 385 0108 20E0      		ldi r18,0
 386 010a 0C94 0000 		jmp simpleserial_addcmd_flags
 387               	.LVL43:
 310:./simpleserial/simpleserial.c **** }
 388               		.loc 1 310 9 view .LVU113
 389               		.cfi_endproc
 390               	.LFE21:
 392               	.global	simpleserial_init
 394               	simpleserial_init:
 395               	.LFB20:
 302:./simpleserial/simpleserial.c **** 	simpleserial_addcmd('v', 0, check_version);
 396               		.loc 1 302 1 is_stmt 1 view -0
 397               		.cfi_startproc
 398               	/* prologue: function */
 399               	/* frame size = 0 */
 400               	/* stack size = 0 */
 401               	.L__stack_usage = 0
 303:./simpleserial/simpleserial.c ****     simpleserial_addcmd('w', 0, ss_get_commands);
 402               		.loc 1 303 2 view .LVU115
 403 010e 40E0      		ldi r20,lo8(gs(check_version))
 404 0110 50E0      		ldi r21,hi8(gs(check_version))
 405 0112 70E0      		ldi r23,0
 406 0114 60E0      		ldi r22,0
 407 0116 86E7      		ldi r24,lo8(118)
 408 0118 0E94 0000 		call simpleserial_addcmd
 409               	.LVL44:
 304:./simpleserial/simpleserial.c ****     simpleserial_addcmd('y', 0, ss_num_commands);
 410               		.loc 1 304 5 view .LVU116
 411 011c 40E0      		ldi r20,lo8(gs(ss_get_commands))
 412 011e 50E0      		ldi r21,hi8(gs(ss_get_commands))
 413 0120 70E0      		ldi r23,0
 414 0122 60E0      		ldi r22,0
 415 0124 87E7      		ldi r24,lo8(119)
 416 0126 0E94 0000 		call simpleserial_addcmd
 417               	.LVL45:
 305:./simpleserial/simpleserial.c **** }
 418               		.loc 1 305 5 view .LVU117
 419 012a 40E0      		ldi r20,lo8(gs(ss_num_commands))
 420 012c 50E0      		ldi r21,hi8(gs(ss_num_commands))
 421 012e 70E0      		ldi r23,0
 422 0130 60E0      		ldi r22,0
 423 0132 89E7      		ldi r24,lo8(121)
 424 0134 0C94 0000 		jmp simpleserial_addcmd
 425               	.LVL46:
 426               		.cfi_endproc
 427               	.LFE20:
 429               	.global	simpleserial_put
 431               	simpleserial_put:
 432               	.LVL47:
 433               	.LFB24:
 329:./simpleserial/simpleserial.c **** 
 330:./simpleserial/simpleserial.c **** void simpleserial_get(void)
 331:./simpleserial/simpleserial.c **** {
 332:./simpleserial/simpleserial.c **** 	char ascii_buf[2*MAX_SS_LEN];
 333:./simpleserial/simpleserial.c **** 	uint8_t data_buf[MAX_SS_LEN];
 334:./simpleserial/simpleserial.c **** 	char c;
 335:./simpleserial/simpleserial.c **** 
 336:./simpleserial/simpleserial.c **** 	// Find which command we're receiving
 337:./simpleserial/simpleserial.c **** 	c = getch();
 338:./simpleserial/simpleserial.c **** 
 339:./simpleserial/simpleserial.c **** 	int cmd;
 340:./simpleserial/simpleserial.c **** 	for(cmd = 0; cmd < num_commands; cmd++)
 341:./simpleserial/simpleserial.c **** 	{
 342:./simpleserial/simpleserial.c **** 		if(commands[cmd].c == c)
 343:./simpleserial/simpleserial.c **** 			break;
 344:./simpleserial/simpleserial.c **** 	}
 345:./simpleserial/simpleserial.c **** 
 346:./simpleserial/simpleserial.c **** 	// If we didn't find a match, give up right away
 347:./simpleserial/simpleserial.c **** 	if(cmd == num_commands)
 348:./simpleserial/simpleserial.c **** 		return;
 349:./simpleserial/simpleserial.c **** 
 350:./simpleserial/simpleserial.c **** 	// If flag CMD_FLAG_LEN is set, the next byte indicates the sent length
 351:./simpleserial/simpleserial.c **** 	if ((commands[cmd].flags & CMD_FLAG_LEN) != 0)
 352:./simpleserial/simpleserial.c **** 	{
 353:./simpleserial/simpleserial.c **** 		uint8_t l = 0;
 354:./simpleserial/simpleserial.c **** 		char buff[2];
 355:./simpleserial/simpleserial.c **** 		buff[0] = getch();
 356:./simpleserial/simpleserial.c **** 		buff[1] = getch();
 357:./simpleserial/simpleserial.c **** 		if (hex_decode(1, buff, &l))
 358:./simpleserial/simpleserial.c **** 			return;
 359:./simpleserial/simpleserial.c **** 		commands[cmd].len = l;
 360:./simpleserial/simpleserial.c **** 	}
 361:./simpleserial/simpleserial.c **** 
 362:./simpleserial/simpleserial.c **** 	// Receive characters until we fill the ASCII buffer
 363:./simpleserial/simpleserial.c **** 	for(int i = 0; i < 2*commands[cmd].len; i++)
 364:./simpleserial/simpleserial.c **** 	{
 365:./simpleserial/simpleserial.c **** 		c = getch();
 366:./simpleserial/simpleserial.c **** 
 367:./simpleserial/simpleserial.c **** 		// Check for early \n
 368:./simpleserial/simpleserial.c **** 		if(c == '\n' || c == '\r')
 369:./simpleserial/simpleserial.c **** 			return;
 370:./simpleserial/simpleserial.c **** 
 371:./simpleserial/simpleserial.c **** 		ascii_buf[i] = c;
 372:./simpleserial/simpleserial.c **** 	}
 373:./simpleserial/simpleserial.c **** 
 374:./simpleserial/simpleserial.c **** 	// Assert that last character is \n or \r
 375:./simpleserial/simpleserial.c **** 	c = getch();
 376:./simpleserial/simpleserial.c **** 	if(c != '\n' && c != '\r')
 377:./simpleserial/simpleserial.c **** 		return;
 378:./simpleserial/simpleserial.c **** 
 379:./simpleserial/simpleserial.c **** 	// ASCII buffer is full: convert to bytes
 380:./simpleserial/simpleserial.c **** 	// Check for illegal characters here
 381:./simpleserial/simpleserial.c **** 	if(hex_decode(commands[cmd].len, ascii_buf, data_buf))
 382:./simpleserial/simpleserial.c **** 		return;
 383:./simpleserial/simpleserial.c **** 
 384:./simpleserial/simpleserial.c **** 	// Callback
 385:./simpleserial/simpleserial.c **** 	uint8_t ret[1];
 386:./simpleserial/simpleserial.c **** 	ret[0] = commands[cmd].fp(data_buf, commands[cmd].len);
 387:./simpleserial/simpleserial.c **** 
 388:./simpleserial/simpleserial.c **** 	// Acknowledge (if version is 1.1)
 389:./simpleserial/simpleserial.c **** #if SS_VER == SS_VER_1_1
 390:./simpleserial/simpleserial.c **** 	simpleserial_put('z', 1, ret);
 391:./simpleserial/simpleserial.c **** #endif
 392:./simpleserial/simpleserial.c **** }
 393:./simpleserial/simpleserial.c **** 
 394:./simpleserial/simpleserial.c **** void simpleserial_put(char c, uint8_t size, uint8_t* output)
 395:./simpleserial/simpleserial.c **** {
 434               		.loc 1 395 1 view -0
 435               		.cfi_startproc
 436               		.loc 1 395 1 is_stmt 0 view .LVU119
 437 0138 FF92      		push r15
 438               	.LCFI0:
 439               		.cfi_def_cfa_offset 4
 440               		.cfi_offset 15, -3
 441 013a 0F93      		push r16
 442               	.LCFI1:
 443               		.cfi_def_cfa_offset 5
 444               		.cfi_offset 16, -4
 445 013c 1F93      		push r17
 446               	.LCFI2:
 447               		.cfi_def_cfa_offset 6
 448               		.cfi_offset 17, -5
 449 013e CF93      		push r28
 450               	.LCFI3:
 451               		.cfi_def_cfa_offset 7
 452               		.cfi_offset 28, -6
 453 0140 DF93      		push r29
 454               	.LCFI4:
 455               		.cfi_def_cfa_offset 8
 456               		.cfi_offset 29, -7
 457               	/* prologue: function */
 458               	/* frame size = 0 */
 459               	/* stack size = 5 */
 460               	.L__stack_usage = 5
 461 0142 062F      		mov r16,r22
 462 0144 F42E      		mov r15,r20
 463 0146 152F      		mov r17,r21
 396:./simpleserial/simpleserial.c **** 	// Write first character
 397:./simpleserial/simpleserial.c **** 	putch(c);
 464               		.loc 1 397 2 is_stmt 1 view .LVU120
 465 0148 0E94 0000 		call output_ch_0
 466               	.LVL48:
 398:./simpleserial/simpleserial.c **** 
 399:./simpleserial/simpleserial.c **** 	// Write each byte as two nibbles
 400:./simpleserial/simpleserial.c **** 	for(int i = 0; i < size; i++)
 467               		.loc 1 400 2 view .LVU121
 468               	.LBB6:
 469               		.loc 1 400 6 view .LVU122
 470               		.loc 1 400 6 is_stmt 0 view .LVU123
 471 014c CF2D      		mov r28,r15
 472 014e D12F      		mov r29,r17
 473 0150 0C0F      		add r16,r28
 474 0152 1D2F      		mov r17,r29
 475 0154 111D      		adc r17,__zero_reg__
 476               	.LVL49:
 477               	.L31:
 478               		.loc 1 400 17 is_stmt 1 discriminator 1 view .LVU124
 479               		.loc 1 400 2 is_stmt 0 discriminator 1 view .LVU125
 480 0156 C017      		cp r28,r16
 481 0158 D107      		cpc r29,r17
 482 015a 01F4      		brne .L32
 483               	.LBE6:
 401:./simpleserial/simpleserial.c **** 	{
 402:./simpleserial/simpleserial.c **** 		putch(hex_lookup[output[i] >> 4 ]);
 403:./simpleserial/simpleserial.c **** 		putch(hex_lookup[output[i] & 0xF]);
 404:./simpleserial/simpleserial.c **** 	}
 405:./simpleserial/simpleserial.c **** 
 406:./simpleserial/simpleserial.c **** 	// Write trailing '\n'
 407:./simpleserial/simpleserial.c **** 	putch('\n');
 484               		.loc 1 407 2 is_stmt 1 view .LVU126
 485 015c 8AE0      		ldi r24,lo8(10)
 486               	/* epilogue start */
 408:./simpleserial/simpleserial.c **** }
 487               		.loc 1 408 1 is_stmt 0 view .LVU127
 488 015e DF91      		pop r29
 489 0160 CF91      		pop r28
 490               	.LVL50:
 491               		.loc 1 408 1 view .LVU128
 492 0162 1F91      		pop r17
 493 0164 0F91      		pop r16
 494 0166 FF90      		pop r15
 407:./simpleserial/simpleserial.c **** }
 495               		.loc 1 407 2 view .LVU129
 496 0168 0C94 0000 		jmp output_ch_0
 497               	.LVL51:
 498               	.L32:
 499               	.LBB7:
 402:./simpleserial/simpleserial.c **** 		putch(hex_lookup[output[i] & 0xF]);
 500               		.loc 1 402 3 is_stmt 1 discriminator 3 view .LVU130
 402:./simpleserial/simpleserial.c **** 		putch(hex_lookup[output[i] & 0xF]);
 501               		.loc 1 402 26 is_stmt 0 discriminator 3 view .LVU131
 502 016c E991      		ld r30,Y+
 503               	.LVL52:
 402:./simpleserial/simpleserial.c **** 		putch(hex_lookup[output[i] & 0xF]);
 504               		.loc 1 402 30 discriminator 3 view .LVU132
 505 016e E295      		swap r30
 506 0170 EF70      		andi r30,lo8(15)
 507 0172 F0E0      		ldi r31,0
 402:./simpleserial/simpleserial.c **** 		putch(hex_lookup[output[i] & 0xF]);
 508               		.loc 1 402 3 discriminator 3 view .LVU133
 509 0174 E050      		subi r30,lo8(-(hex_lookup))
 510 0176 F040      		sbci r31,hi8(-(hex_lookup))
 511 0178 8081      		ld r24,Z
 512 017a 0E94 0000 		call output_ch_0
 513               	.LVL53:
 403:./simpleserial/simpleserial.c **** 	}
 514               		.loc 1 403 3 is_stmt 1 discriminator 3 view .LVU134
 403:./simpleserial/simpleserial.c **** 	}
 515               		.loc 1 403 26 is_stmt 0 discriminator 3 view .LVU135
 516 017e FE01      		movw r30,r28
 517 0180 3197      		sbiw r30,1
 403:./simpleserial/simpleserial.c **** 	}
 518               		.loc 1 403 30 discriminator 3 view .LVU136
 519 0182 E081      		ld r30,Z
 520 0184 EF70      		andi r30,lo8(15)
 521 0186 F0E0      		ldi r31,0
 403:./simpleserial/simpleserial.c **** 	}
 522               		.loc 1 403 3 discriminator 3 view .LVU137
 523 0188 E050      		subi r30,lo8(-(hex_lookup))
 524 018a F040      		sbci r31,hi8(-(hex_lookup))
 525 018c 8081      		ld r24,Z
 526 018e 0E94 0000 		call output_ch_0
 527               	.LVL54:
 400:./simpleserial/simpleserial.c **** 	{
 528               		.loc 1 400 27 is_stmt 1 discriminator 3 view .LVU138
 400:./simpleserial/simpleserial.c **** 	{
 529               		.loc 1 400 27 is_stmt 0 discriminator 3 view .LVU139
 530 0192 00C0      		rjmp .L31
 531               	.LBE7:
 532               		.cfi_endproc
 533               	.LFE24:
 535               	.global	ss_num_commands
 537               	ss_num_commands:
 538               	.LVL55:
 539               	.LFB17:
 237:./simpleserial/simpleserial.c ****     uint8_t ncmds = num_commands & 0xFF;
 540               		.loc 1 237 1 is_stmt 1 view -0
 541               		.cfi_startproc
 237:./simpleserial/simpleserial.c ****     uint8_t ncmds = num_commands & 0xFF;
 542               		.loc 1 237 1 is_stmt 0 view .LVU141
 543 0194 CF93      		push r28
 544               	.LCFI5:
 545               		.cfi_def_cfa_offset 4
 546               		.cfi_offset 28, -3
 547 0196 DF93      		push r29
 548               	.LCFI6:
 549               		.cfi_def_cfa_offset 5
 550               		.cfi_offset 29, -4
 551 0198 0F92      		push __tmp_reg__
 552               	.LCFI7:
 553               		.cfi_def_cfa_offset 6
 554 019a CDB7      		in r28,__SP_L__
 555 019c DEB7      		in r29,__SP_H__
 556               	.LCFI8:
 557               		.cfi_def_cfa_register 28
 558               	/* prologue: function */
 559               	/* frame size = 1 */
 560               	/* stack size = 3 */
 561               	.L__stack_usage = 3
 238:./simpleserial/simpleserial.c ****     simpleserial_put('r', 0x01, &ncmds);
 562               		.loc 1 238 5 is_stmt 1 view .LVU142
 238:./simpleserial/simpleserial.c ****     simpleserial_put('r', 0x01, &ncmds);
 563               		.loc 1 238 13 is_stmt 0 view .LVU143
 564 019e 8091 0000 		lds r24,num_commands
 565               	.LVL56:
 238:./simpleserial/simpleserial.c ****     simpleserial_put('r', 0x01, &ncmds);
 566               		.loc 1 238 13 view .LVU144
 567 01a2 8983      		std Y+1,r24
 239:./simpleserial/simpleserial.c ****     return 0x00;
 568               		.loc 1 239 5 is_stmt 1 view .LVU145
 569 01a4 AE01      		movw r20,r28
 570 01a6 4F5F      		subi r20,-1
 571 01a8 5F4F      		sbci r21,-1
 572 01aa 61E0      		ldi r22,lo8(1)
 573               	.LVL57:
 239:./simpleserial/simpleserial.c ****     return 0x00;
 574               		.loc 1 239 5 is_stmt 0 view .LVU146
 575 01ac 82E7      		ldi r24,lo8(114)
 576 01ae 0E94 0000 		call simpleserial_put
 577               	.LVL58:
 240:./simpleserial/simpleserial.c **** }
 578               		.loc 1 240 5 is_stmt 1 view .LVU147
 241:./simpleserial/simpleserial.c **** 
 579               		.loc 1 241 1 is_stmt 0 view .LVU148
 580 01b2 80E0      		ldi r24,0
 581               	/* epilogue start */
 582 01b4 0F90      		pop __tmp_reg__
 583 01b6 DF91      		pop r29
 584 01b8 CF91      		pop r28
 585 01ba 0895      		ret
 586               		.cfi_endproc
 587               	.LFE17:
 589               	.global	ss_get_commands
 591               	ss_get_commands:
 592               	.LVL59:
 593               	.LFB18:
 250:./simpleserial/simpleserial.c ****     ss_cmd_repr repr_cmd_buf[MAX_SS_CMDS];
 594               		.loc 1 250 1 is_stmt 1 view -0
 595               		.cfi_startproc
 250:./simpleserial/simpleserial.c ****     ss_cmd_repr repr_cmd_buf[MAX_SS_CMDS];
 596               		.loc 1 250 1 is_stmt 0 view .LVU150
 597 01bc CF93      		push r28
 598               	.LCFI9:
 599               		.cfi_def_cfa_offset 4
 600               		.cfi_offset 28, -3
 601 01be DF93      		push r29
 602               	.LCFI10:
 603               		.cfi_def_cfa_offset 5
 604               		.cfi_offset 29, -4
 605 01c0 CDB7      		in r28,__SP_L__
 606 01c2 DEB7      		in r29,__SP_H__
 607               	.LCFI11:
 608               		.cfi_def_cfa_register 28
 609 01c4 E097      		sbiw r28,48
 610               	.LCFI12:
 611               		.cfi_def_cfa_offset 53
 612 01c6 CDBF      		out __SP_L__,r28
 613 01c8 DEBF      		out __SP_H__,r29
 614               	/* prologue: function */
 615               	/* frame size = 48 */
 616               	/* stack size = 50 */
 617               	.L__stack_usage = 50
 251:./simpleserial/simpleserial.c ****     for (uint8_t i = 0; i < (num_commands & 0xFF); i++) {
 618               		.loc 1 251 5 is_stmt 1 view .LVU151
 252:./simpleserial/simpleserial.c ****         repr_cmd_buf[i].c = commands[i].c;
 619               		.loc 1 252 5 view .LVU152
 620               	.LBB8:
 252:./simpleserial/simpleserial.c ****         repr_cmd_buf[i].c = commands[i].c;
 621               		.loc 1 252 10 view .LVU153
 622               	.LVL60:
 252:./simpleserial/simpleserial.c ****         repr_cmd_buf[i].c = commands[i].c;
 623               		.loc 1 252 43 is_stmt 0 view .LVU154
 624 01ca 2091 0000 		lds r18,num_commands
 625 01ce 3091 0000 		lds r19,num_commands+1
 626 01d2 B901      		movw r22,r18
 627               	.LVL61:
 252:./simpleserial/simpleserial.c ****         repr_cmd_buf[i].c = commands[i].c;
 628               		.loc 1 252 43 view .LVU155
 629 01d4 7727      		clr r23
 252:./simpleserial/simpleserial.c ****         repr_cmd_buf[i].c = commands[i].c;
 630               		.loc 1 252 18 view .LVU156
 631 01d6 40E0      		ldi r20,0
 253:./simpleserial/simpleserial.c ****         repr_cmd_buf[i].len = commands[i].len;
 632               		.loc 1 253 40 view .LVU157
 633 01d8 56E0      		ldi r21,lo8(6)
 634               	.LVL62:
 635               	.L35:
 252:./simpleserial/simpleserial.c ****         repr_cmd_buf[i].c = commands[i].c;
 636               		.loc 1 252 25 is_stmt 1 discriminator 1 view .LVU158
 252:./simpleserial/simpleserial.c ****         repr_cmd_buf[i].c = commands[i].c;
 637               		.loc 1 252 27 is_stmt 0 discriminator 1 view .LVU159
 638 01da 842F      		mov r24,r20
 639 01dc 90E0      		ldi r25,0
 252:./simpleserial/simpleserial.c ****         repr_cmd_buf[i].c = commands[i].c;
 640               		.loc 1 252 5 discriminator 1 view .LVU160
 641 01de 8617      		cp r24,r22
 642 01e0 9707      		cpc r25,r23
 643 01e2 04F0      		brlt .L36
 644               	.LBE8:
 258:./simpleserial/simpleserial.c ****     return 0x00;
 645               		.loc 1 258 5 is_stmt 1 view .LVU161
 646 01e4 622F      		mov r22,r18
 647 01e6 660F      		lsl r22
 648 01e8 620F      		add r22,r18
 649 01ea AE01      		movw r20,r28
 650               	.LVL63:
 258:./simpleserial/simpleserial.c ****     return 0x00;
 651               		.loc 1 258 5 is_stmt 0 view .LVU162
 652 01ec 4F5F      		subi r20,-1
 653 01ee 5F4F      		sbci r21,-1
 654 01f0 82E7      		ldi r24,lo8(114)
 655               	.LVL64:
 258:./simpleserial/simpleserial.c ****     return 0x00;
 656               		.loc 1 258 5 view .LVU163
 657 01f2 0E94 0000 		call simpleserial_put
 658               	.LVL65:
 259:./simpleserial/simpleserial.c **** }
 659               		.loc 1 259 5 is_stmt 1 view .LVU164
 260:./simpleserial/simpleserial.c **** 
 660               		.loc 1 260 1 is_stmt 0 view .LVU165
 661 01f6 80E0      		ldi r24,0
 662               	/* epilogue start */
 663 01f8 E096      		adiw r28,48
 664 01fa CDBF      		out __SP_L__,r28
 665 01fc DEBF      		out __SP_H__,r29
 666 01fe DF91      		pop r29
 667 0200 CF91      		pop r28
 668 0202 0895      		ret
 669               	.LVL66:
 670               	.L36:
 671               	.LBB9:
 253:./simpleserial/simpleserial.c ****         repr_cmd_buf[i].len = commands[i].len;
 672               		.loc 1 253 9 is_stmt 1 discriminator 3 view .LVU166
 253:./simpleserial/simpleserial.c ****         repr_cmd_buf[i].len = commands[i].len;
 673               		.loc 1 253 27 is_stmt 0 discriminator 3 view .LVU167
 674 0204 FC01      		movw r30,r24
 675 0206 EE0F      		lsl r30
 676 0208 FF1F      		rol r31
 677 020a E80F      		add r30,r24
 678 020c F91F      		adc r31,r25
 679 020e A1E0      		ldi r26,lo8(1)
 680 0210 B0E0      		ldi r27,0
 681 0212 AC0F      		add r26,r28
 682 0214 BD1F      		adc r27,r29
 683 0216 EA0F      		add r30,r26
 684 0218 FB1F      		adc r31,r27
 253:./simpleserial/simpleserial.c ****         repr_cmd_buf[i].len = commands[i].len;
 685               		.loc 1 253 40 discriminator 3 view .LVU168
 686 021a 589F      		mul r21,r24
 687 021c D001      		movw r26,r0
 688 021e 599F      		mul r21,r25
 689 0220 B00D      		add r27,r0
 690 0222 1124      		clr __zero_reg__
 691 0224 A050      		subi r26,lo8(-(commands))
 692 0226 B040      		sbci r27,hi8(-(commands))
 253:./simpleserial/simpleserial.c ****         repr_cmd_buf[i].len = commands[i].len;
 693               		.loc 1 253 27 discriminator 3 view .LVU169
 694 0228 8C91      		ld r24,X
 695 022a 8083      		st Z,r24
 254:./simpleserial/simpleserial.c ****         repr_cmd_buf[i].flags = commands[i].flags;
 696               		.loc 1 254 9 is_stmt 1 discriminator 3 view .LVU170
 254:./simpleserial/simpleserial.c ****         repr_cmd_buf[i].flags = commands[i].flags;
 697               		.loc 1 254 29 is_stmt 0 discriminator 3 view .LVU171
 698 022c 1196      		adiw r26,1
 699 022e 8C91      		ld r24,X
 700 0230 1197      		sbiw r26,1
 701 0232 8183      		std Z+1,r24
 255:./simpleserial/simpleserial.c ****     }
 702               		.loc 1 255 9 is_stmt 1 discriminator 3 view .LVU172
 255:./simpleserial/simpleserial.c ****     }
 703               		.loc 1 255 31 is_stmt 0 discriminator 3 view .LVU173
 704 0234 1596      		adiw r26,5
 705 0236 8C91      		ld r24,X
 706 0238 8283      		std Z+2,r24
 252:./simpleserial/simpleserial.c ****         repr_cmd_buf[i].c = commands[i].c;
 707               		.loc 1 252 52 is_stmt 1 discriminator 3 view .LVU174
 252:./simpleserial/simpleserial.c ****         repr_cmd_buf[i].c = commands[i].c;
 708               		.loc 1 252 53 is_stmt 0 discriminator 3 view .LVU175
 709 023a 4F5F      		subi r20,lo8(-(1))
 710               	.LVL67:
 252:./simpleserial/simpleserial.c ****         repr_cmd_buf[i].c = commands[i].c;
 711               		.loc 1 252 53 discriminator 3 view .LVU176
 712 023c 00C0      		rjmp .L35
 713               	.LBE9:
 714               		.cfi_endproc
 715               	.LFE18:
 717               	.global	simpleserial_get
 719               	simpleserial_get:
 720               	.LFB23:
 331:./simpleserial/simpleserial.c **** 	char ascii_buf[2*MAX_SS_LEN];
 721               		.loc 1 331 1 is_stmt 1 view -0
 722               		.cfi_startproc
 723 023e AF92      		push r10
 724               	.LCFI13:
 725               		.cfi_def_cfa_offset 4
 726               		.cfi_offset 10, -3
 727 0240 BF92      		push r11
 728               	.LCFI14:
 729               		.cfi_def_cfa_offset 5
 730               		.cfi_offset 11, -4
 731 0242 CF92      		push r12
 732               	.LCFI15:
 733               		.cfi_def_cfa_offset 6
 734               		.cfi_offset 12, -5
 735 0244 DF92      		push r13
 736               	.LCFI16:
 737               		.cfi_def_cfa_offset 7
 738               		.cfi_offset 13, -6
 739 0246 EF92      		push r14
 740               	.LCFI17:
 741               		.cfi_def_cfa_offset 8
 742               		.cfi_offset 14, -7
 743 0248 FF92      		push r15
 744               	.LCFI18:
 745               		.cfi_def_cfa_offset 9
 746               		.cfi_offset 15, -8
 747 024a 0F93      		push r16
 748               	.LCFI19:
 749               		.cfi_def_cfa_offset 10
 750               		.cfi_offset 16, -9
 751 024c 1F93      		push r17
 752               	.LCFI20:
 753               		.cfi_def_cfa_offset 11
 754               		.cfi_offset 17, -10
 755 024e CF93      		push r28
 756               	.LCFI21:
 757               		.cfi_def_cfa_offset 12
 758               		.cfi_offset 28, -11
 759 0250 DF93      		push r29
 760               	.LCFI22:
 761               		.cfi_def_cfa_offset 13
 762               		.cfi_offset 29, -12
 763 0252 CDB7      		in r28,__SP_L__
 764 0254 DEB7      		in r29,__SP_H__
 765               	.LCFI23:
 766               		.cfi_def_cfa_register 28
 767 0256 C154      		subi r28,65
 768 0258 D240      		sbci r29,2
 769               	.LCFI24:
 770               		.cfi_def_cfa_offset 590
 771 025a CDBF      		out __SP_L__,r28
 772 025c DEBF      		out __SP_H__,r29
 773               	/* prologue: function */
 774               	/* frame size = 577 */
 775               	/* stack size = 587 */
 776               	.L__stack_usage = 587
 332:./simpleserial/simpleserial.c **** 	uint8_t data_buf[MAX_SS_LEN];
 777               		.loc 1 332 2 view .LVU178
 333:./simpleserial/simpleserial.c **** 	char c;
 778               		.loc 1 333 2 view .LVU179
 334:./simpleserial/simpleserial.c **** 
 779               		.loc 1 334 2 view .LVU180
 337:./simpleserial/simpleserial.c **** 
 780               		.loc 1 337 2 view .LVU181
 337:./simpleserial/simpleserial.c **** 
 781               		.loc 1 337 6 is_stmt 0 view .LVU182
 782 025e 0E94 0000 		call input_ch_0
 783               	.LVL68:
 339:./simpleserial/simpleserial.c **** 	for(cmd = 0; cmd < num_commands; cmd++)
 784               		.loc 1 339 2 is_stmt 1 view .LVU183
 340:./simpleserial/simpleserial.c **** 	{
 785               		.loc 1 340 2 view .LVU184
 340:./simpleserial/simpleserial.c **** 	{
 786               		.loc 1 340 19 is_stmt 0 view .LVU185
 787 0262 4091 0000 		lds r20,num_commands
 788 0266 5091 0000 		lds r21,num_commands+1
 789 026a 20E0      		ldi r18,lo8(commands)
 790 026c 30E0      		ldi r19,hi8(commands)
 340:./simpleserial/simpleserial.c **** 	{
 791               		.loc 1 340 10 view .LVU186
 792 026e 10E0      		ldi r17,0
 793 0270 00E0      		ldi r16,0
 794               	.LVL69:
 795               	.L38:
 340:./simpleserial/simpleserial.c **** 	{
 796               		.loc 1 340 15 is_stmt 1 discriminator 1 view .LVU187
 340:./simpleserial/simpleserial.c **** 	{
 797               		.loc 1 340 2 is_stmt 0 discriminator 1 view .LVU188
 798 0272 0417      		cp r16,r20
 799 0274 1507      		cpc r17,r21
 800 0276 04F0      		brlt .L42
 347:./simpleserial/simpleserial.c **** 		return;
 801               		.loc 1 347 2 is_stmt 1 view .LVU189
 347:./simpleserial/simpleserial.c **** 		return;
 802               		.loc 1 347 4 is_stmt 0 view .LVU190
 803 0278 4017      		cp r20,r16
 804 027a 5107      		cpc r21,r17
 805 027c 01F4      		brne .L44
 806               	.LVL70:
 807               	.L37:
 808               	/* epilogue start */
 392:./simpleserial/simpleserial.c **** 
 809               		.loc 1 392 1 view .LVU191
 810 027e CF5B      		subi r28,-65
 811 0280 DD4F      		sbci r29,-3
 812 0282 CDBF      		out __SP_L__,r28
 813 0284 DEBF      		out __SP_H__,r29
 814 0286 DF91      		pop r29
 815 0288 CF91      		pop r28
 816 028a 1F91      		pop r17
 817 028c 0F91      		pop r16
 818 028e FF90      		pop r15
 819 0290 EF90      		pop r14
 820 0292 DF90      		pop r13
 821 0294 CF90      		pop r12
 822 0296 BF90      		pop r11
 823 0298 AF90      		pop r10
 824 029a 0895      		ret
 825               	.LVL71:
 826               	.L42:
 342:./simpleserial/simpleserial.c **** 			break;
 827               		.loc 1 342 3 is_stmt 1 view .LVU192
 828 029c 2A5F      		subi r18,-6
 829 029e 3F4F      		sbci r19,-1
 342:./simpleserial/simpleserial.c **** 			break;
 830               		.loc 1 342 19 is_stmt 0 view .LVU193
 831 02a0 F901      		movw r30,r18
 832 02a2 3697      		sbiw r30,6
 342:./simpleserial/simpleserial.c **** 			break;
 833               		.loc 1 342 5 view .LVU194
 834 02a4 9081      		ld r25,Z
 835 02a6 9813      		cpse r25,r24
 836 02a8 00C0      		rjmp .L39
 837               	.L44:
 351:./simpleserial/simpleserial.c **** 	{
 838               		.loc 1 351 2 is_stmt 1 view .LVU195
 351:./simpleserial/simpleserial.c **** 	{
 839               		.loc 1 351 20 is_stmt 0 view .LVU196
 840 02aa 26E0      		ldi r18,lo8(6)
 841 02ac 209F      		mul r18,r16
 842 02ae C001      		movw r24,r0
 843 02b0 219F      		mul r18,r17
 844 02b2 900D      		add r25,r0
 845 02b4 1124      		clr __zero_reg__
 846               	.LVL72:
 351:./simpleserial/simpleserial.c **** 	{
 847               		.loc 1 351 20 view .LVU197
 848 02b6 9C01      		movw r18,r24
 849 02b8 2050      		subi r18,lo8(-(commands))
 850 02ba 3040      		sbci r19,hi8(-(commands))
 851 02bc 7901      		movw r14,r18
 351:./simpleserial/simpleserial.c **** 	{
 852               		.loc 1 351 5 view .LVU198
 853 02be D901      		movw r26,r18
 854 02c0 1596      		adiw r26,5
 855 02c2 8C91      		ld r24,X
 856 02c4 80FF      		sbrs r24,0
 857 02c6 00C0      		rjmp .L41
 858               	.LBB10:
 353:./simpleserial/simpleserial.c **** 		char buff[2];
 859               		.loc 1 353 3 is_stmt 1 view .LVU199
 353:./simpleserial/simpleserial.c **** 		char buff[2];
 860               		.loc 1 353 11 is_stmt 0 view .LVU200
 861 02c8 CF57      		subi r28,lo8(-385)
 862 02ca DE4F      		sbci r29,hi8(-385)
 863 02cc 1882      		st Y,__zero_reg__
 864 02ce C158      		subi r28,lo8(385)
 865 02d0 D140      		sbci r29,hi8(385)
 354:./simpleserial/simpleserial.c **** 		buff[0] = getch();
 866               		.loc 1 354 3 is_stmt 1 view .LVU201
 355:./simpleserial/simpleserial.c **** 		buff[1] = getch();
 867               		.loc 1 355 3 view .LVU202
 355:./simpleserial/simpleserial.c **** 		buff[1] = getch();
 868               		.loc 1 355 13 is_stmt 0 view .LVU203
 869 02d2 0E94 0000 		call input_ch_0
 870               	.LVL73:
 355:./simpleserial/simpleserial.c **** 		buff[1] = getch();
 871               		.loc 1 355 11 view .LVU204
 872 02d6 8983      		std Y+1,r24
 356:./simpleserial/simpleserial.c **** 		if (hex_decode(1, buff, &l))
 873               		.loc 1 356 3 is_stmt 1 view .LVU205
 356:./simpleserial/simpleserial.c **** 		if (hex_decode(1, buff, &l))
 874               		.loc 1 356 13 is_stmt 0 view .LVU206
 875 02d8 0E94 0000 		call input_ch_0
 876               	.LVL74:
 356:./simpleserial/simpleserial.c **** 		if (hex_decode(1, buff, &l))
 877               		.loc 1 356 11 view .LVU207
 878 02dc 8A83      		std Y+2,r24
 357:./simpleserial/simpleserial.c **** 			return;
 879               		.loc 1 357 3 is_stmt 1 view .LVU208
 357:./simpleserial/simpleserial.c **** 			return;
 880               		.loc 1 357 7 is_stmt 0 view .LVU209
 881 02de AE01      		movw r20,r28
 882 02e0 4F57      		subi r20,127
 883 02e2 5E4F      		sbci r21,-2
 884 02e4 BE01      		movw r22,r28
 885 02e6 6F5F      		subi r22,-1
 886 02e8 7F4F      		sbci r23,-1
 887 02ea 81E0      		ldi r24,lo8(1)
 888 02ec 90E0      		ldi r25,0
 889 02ee 0E94 0000 		call hex_decode
 890               	.LVL75:
 357:./simpleserial/simpleserial.c **** 			return;
 891               		.loc 1 357 6 view .LVU210
 892 02f2 892B      		or r24,r25
 893 02f4 01F4      		brne .L37
 359:./simpleserial/simpleserial.c **** 	}
 894               		.loc 1 359 3 is_stmt 1 view .LVU211
 359:./simpleserial/simpleserial.c **** 	}
 895               		.loc 1 359 21 is_stmt 0 view .LVU212
 896 02f6 CF57      		subi r28,lo8(-385)
 897 02f8 DE4F      		sbci r29,hi8(-385)
 898 02fa 8881      		ld r24,Y
 899 02fc C158      		subi r28,lo8(385)
 900 02fe D140      		sbci r29,hi8(385)
 901 0300 90E0      		ldi r25,0
 902 0302 F701      		movw r30,r14
 903 0304 8183      		std Z+1,r24
 904 0306 9283      		std Z+2,r25
 905               	.L41:
 906 0308 9E01      		movw r18,r28
 907 030a 2F5F      		subi r18,-1
 908 030c 3F4F      		sbci r19,-1
 909 030e 5901      		movw r10,r18
 910               	.LBE10:
 340:./simpleserial/simpleserial.c **** 	{
 911               		.loc 1 340 10 discriminator 1 view .LVU213
 912 0310 F12C      		mov r15,__zero_reg__
 913 0312 E12C      		mov r14,__zero_reg__
 914               	.LBB11:
 363:./simpleserial/simpleserial.c **** 	{
 915               		.loc 1 363 36 discriminator 1 view .LVU214
 916 0314 26E0      		ldi r18,lo8(6)
 917 0316 209F      		mul r18,r16
 918 0318 C001      		movw r24,r0
 919 031a 219F      		mul r18,r17
 920 031c 900D      		add r25,r0
 921 031e 1124      		clr __zero_reg__
 922 0320 DC01      		movw r26,r24
 923 0322 A050      		subi r26,lo8(-(commands+1))
 924 0324 B040      		sbci r27,hi8(-(commands+1))
 925 0326 6D01      		movw r12,r26
 926               	.L47:
 927               	.LVL76:
 363:./simpleserial/simpleserial.c **** 	{
 928               		.loc 1 363 17 is_stmt 1 discriminator 1 view .LVU215
 363:./simpleserial/simpleserial.c **** 	{
 929               		.loc 1 363 22 is_stmt 0 discriminator 1 view .LVU216
 930 0328 D601      		movw r26,r12
 931 032a 8D91      		ld r24,X+
 932 032c 9C91      		ld r25,X
 933 032e 880F      		lsl r24
 934 0330 991F      		rol r25
 363:./simpleserial/simpleserial.c **** 	{
 935               		.loc 1 363 2 discriminator 1 view .LVU217
 936 0332 E816      		cp r14,r24
 937 0334 F906      		cpc r15,r25
 938 0336 00F0      		brlo .L48
 939               	.LBE11:
 375:./simpleserial/simpleserial.c **** 	if(c != '\n' && c != '\r')
 940               		.loc 1 375 2 is_stmt 1 view .LVU218
 375:./simpleserial/simpleserial.c **** 	if(c != '\n' && c != '\r')
 941               		.loc 1 375 6 is_stmt 0 view .LVU219
 942 0338 0E94 0000 		call input_ch_0
 943               	.LVL77:
 376:./simpleserial/simpleserial.c **** 		return;
 944               		.loc 1 376 2 is_stmt 1 view .LVU220
 376:./simpleserial/simpleserial.c **** 		return;
 945               		.loc 1 376 4 is_stmt 0 view .LVU221
 946 033c 8A30      		cpi r24,lo8(10)
 947 033e 01F0      		breq .L49
 376:./simpleserial/simpleserial.c **** 		return;
 948               		.loc 1 376 15 discriminator 1 view .LVU222
 949 0340 8D30      		cpi r24,lo8(13)
 950 0342 01F0      		breq .+2
 951 0344 00C0      		rjmp .L37
 952               	.L49:
 381:./simpleserial/simpleserial.c **** 		return;
 953               		.loc 1 381 2 is_stmt 1 view .LVU223
 381:./simpleserial/simpleserial.c **** 		return;
 954               		.loc 1 381 29 is_stmt 0 view .LVU224
 955 0346 26E0      		ldi r18,lo8(6)
 956 0348 209F      		mul r18,r16
 957 034a C001      		movw r24,r0
 958 034c 219F      		mul r18,r17
 959 034e 900D      		add r25,r0
 960 0350 1124      		clr __zero_reg__
 961               	.LVL78:
 381:./simpleserial/simpleserial.c **** 		return;
 962               		.loc 1 381 29 view .LVU225
 963 0352 8C01      		movw r16,r24
 964               	.LVL79:
 381:./simpleserial/simpleserial.c **** 		return;
 965               		.loc 1 381 29 view .LVU226
 966 0354 0050      		subi r16,lo8(-(commands))
 967 0356 1040      		sbci r17,hi8(-(commands))
 968 0358 F801      		movw r30,r16
 969 035a F180      		ldd r15,Z+1
 381:./simpleserial/simpleserial.c **** 		return;
 970               		.loc 1 381 5 view .LVU227
 971 035c AE01      		movw r20,r28
 972 035e 4F57      		subi r20,127
 973 0360 5E4F      		sbci r21,-2
 974 0362 BE01      		movw r22,r28
 975 0364 6F5F      		subi r22,-1
 976 0366 7F4F      		sbci r23,-1
 977 0368 8F2D      		mov r24,r15
 978 036a 9281      		ldd r25,Z+2
 979 036c 0E94 0000 		call hex_decode
 980               	.LVL80:
 381:./simpleserial/simpleserial.c **** 		return;
 981               		.loc 1 381 4 view .LVU228
 982 0370 892B      		or r24,r25
 983 0372 01F0      		breq .+2
 984 0374 00C0      		rjmp .L37
 385:./simpleserial/simpleserial.c **** 	ret[0] = commands[cmd].fp(data_buf, commands[cmd].len);
 985               		.loc 1 385 2 is_stmt 1 view .LVU229
 386:./simpleserial/simpleserial.c **** 
 986               		.loc 1 386 2 view .LVU230
 386:./simpleserial/simpleserial.c **** 
 987               		.loc 1 386 11 is_stmt 0 view .LVU231
 988 0376 D801      		movw r26,r16
 989 0378 1396      		adiw r26,3
 990 037a ED91      		ld r30,X+
 991 037c FC91      		ld r31,X
 992 037e 6F2D      		mov r22,r15
 993 0380 CE01      		movw r24,r28
 994 0382 8F57      		subi r24,127
 995 0384 9E4F      		sbci r25,-2
 996 0386 1995      		eicall
 997               	.LVL81:
 386:./simpleserial/simpleserial.c **** 
 998               		.loc 1 386 9 view .LVU232
 999 0388 CF5B      		subi r28,lo8(-577)
 1000 038a DD4F      		sbci r29,hi8(-577)
 1001 038c 8883      		st Y,r24
 1002 038e C154      		subi r28,lo8(577)
 1003 0390 D240      		sbci r29,hi8(577)
 390:./simpleserial/simpleserial.c **** #endif
 1004               		.loc 1 390 2 is_stmt 1 view .LVU233
 1005 0392 AE01      		movw r20,r28
 1006 0394 4F5B      		subi r20,-65
 1007 0396 5D4F      		sbci r21,-3
 1008 0398 61E0      		ldi r22,lo8(1)
 1009 039a 8AE7      		ldi r24,lo8(122)
 1010 039c 0E94 0000 		call simpleserial_put
 1011               	.LVL82:
 1012 03a0 00C0      		rjmp .L37
 1013               	.LVL83:
 1014               	.L39:
 340:./simpleserial/simpleserial.c **** 	{
 1015               		.loc 1 340 35 discriminator 2 view .LVU234
 340:./simpleserial/simpleserial.c **** 	{
 1016               		.loc 1 340 38 is_stmt 0 discriminator 2 view .LVU235
 1017 03a2 0F5F      		subi r16,-1
 1018 03a4 1F4F      		sbci r17,-1
 1019               	.LVL84:
 340:./simpleserial/simpleserial.c **** 	{
 1020               		.loc 1 340 38 discriminator 2 view .LVU236
 1021 03a6 00C0      		rjmp .L38
 1022               	.LVL85:
 1023               	.L48:
 1024               	.LBB12:
 365:./simpleserial/simpleserial.c **** 
 1025               		.loc 1 365 3 is_stmt 1 view .LVU237
 365:./simpleserial/simpleserial.c **** 
 1026               		.loc 1 365 7 is_stmt 0 view .LVU238
 1027 03a8 0E94 0000 		call input_ch_0
 1028               	.LVL86:
 368:./simpleserial/simpleserial.c **** 			return;
 1029               		.loc 1 368 3 is_stmt 1 view .LVU239
 368:./simpleserial/simpleserial.c **** 			return;
 1030               		.loc 1 368 5 is_stmt 0 view .LVU240
 1031 03ac 8A30      		cpi r24,lo8(10)
 1032 03ae 01F4      		brne .+2
 1033 03b0 00C0      		rjmp .L37
 368:./simpleserial/simpleserial.c **** 			return;
 1034               		.loc 1 368 16 discriminator 1 view .LVU241
 1035 03b2 8D30      		cpi r24,lo8(13)
 1036 03b4 01F4      		brne .+2
 1037 03b6 00C0      		rjmp .L37
 371:./simpleserial/simpleserial.c **** 	}
 1038               		.loc 1 371 3 is_stmt 1 discriminator 2 view .LVU242
 371:./simpleserial/simpleserial.c **** 	}
 1039               		.loc 1 371 16 is_stmt 0 discriminator 2 view .LVU243
 1040 03b8 F501      		movw r30,r10
 1041 03ba 8193      		st Z+,r24
 1042 03bc 5F01      		movw r10,r30
 363:./simpleserial/simpleserial.c **** 	{
 1043               		.loc 1 363 42 is_stmt 1 discriminator 2 view .LVU244
 363:./simpleserial/simpleserial.c **** 	{
 1044               		.loc 1 363 43 is_stmt 0 discriminator 2 view .LVU245
 1045 03be FFEF      		ldi r31,-1
 1046 03c0 EF1A      		sub r14,r31
 1047 03c2 FF0A      		sbc r15,r31
 1048               	.LVL87:
 363:./simpleserial/simpleserial.c **** 	{
 1049               		.loc 1 363 43 discriminator 2 view .LVU246
 1050 03c4 00C0      		rjmp .L47
 1051               	.LBE12:
 1052               		.cfi_endproc
 1053               	.LFE23:
 1055               		.section	.rodata
 1058               	hex_lookup:
 1059 0000 3031 3233 		.ascii	"0123456789ABCDEF"
 1059      3435 3637 
 1059      3839 4142 
 1059      4344 4546 
 1060               		.local	commands
 1061               		.comm	commands,96,1
 1062               		.local	num_commands
 1063               		.comm	num_commands,2,1
 1064               		.text
 1065               	.Letext0:
 1066               		.file 2 "/opt/homebrew/Cellar/avr-gcc@9/9.4.0_1/avr/include/stdint.h"
 1067               		.file 3 "/opt/homebrew/Cellar/avr-gcc@9/9.4.0_1/lib/avr-gcc/9/gcc/avr/9.4.0/include/stddef.h"
 1068               		.file 4 "/opt/homebrew/Cellar/avr-gcc@9/9.4.0_1/avr/include/stdlib.h"
 1069               		.file 5 "./hal/xmega/uart.h"
DEFINED SYMBOLS
                            *ABS*:00000000 simpleserial.c
/var/folders/wq/x3vp_84133jc_nxh28zg58gh0000gn/T//ccgUFtj2.s:2      *ABS*:0000003e __SP_H__
/var/folders/wq/x3vp_84133jc_nxh28zg58gh0000gn/T//ccgUFtj2.s:3      *ABS*:0000003d __SP_L__
/var/folders/wq/x3vp_84133jc_nxh28zg58gh0000gn/T//ccgUFtj2.s:4      *ABS*:0000003f __SREG__
/var/folders/wq/x3vp_84133jc_nxh28zg58gh0000gn/T//ccgUFtj2.s:5      *ABS*:0000003b __RAMPZ__
/var/folders/wq/x3vp_84133jc_nxh28zg58gh0000gn/T//ccgUFtj2.s:6      *ABS*:00000034 __CCP__
/var/folders/wq/x3vp_84133jc_nxh28zg58gh0000gn/T//ccgUFtj2.s:7      *ABS*:00000000 __tmp_reg__
/var/folders/wq/x3vp_84133jc_nxh28zg58gh0000gn/T//ccgUFtj2.s:8      *ABS*:00000001 __zero_reg__
/var/folders/wq/x3vp_84133jc_nxh28zg58gh0000gn/T//ccgUFtj2.s:14     .text:00000000 check_version
/var/folders/wq/x3vp_84133jc_nxh28zg58gh0000gn/T//ccgUFtj2.s:18     .text:00000000 .Loc.0
/var/folders/wq/x3vp_84133jc_nxh28zg58gh0000gn/T//ccgUFtj2.s:19     .text:00000000 L0
/var/folders/wq/x3vp_84133jc_nxh28zg58gh0000gn/T//ccgUFtj2.s:24     .text:00000000 .Loc.1
/var/folders/wq/x3vp_84133jc_nxh28zg58gh0000gn/T//ccgUFtj2.s:25     .text:00000000 .Loc.2
/var/folders/wq/x3vp_84133jc_nxh28zg58gh0000gn/T//ccgUFtj2.s:29     .text:00000002 .Loc.3
/var/folders/wq/x3vp_84133jc_nxh28zg58gh0000gn/T//ccgUFtj2.s:31     .text:00000004 L0
/var/folders/wq/x3vp_84133jc_nxh28zg58gh0000gn/T//ccgUFtj2.s:36     .text:00000004 ss_crc
/var/folders/wq/x3vp_84133jc_nxh28zg58gh0000gn/T//ccgUFtj2.s:39     .text:00000004 .Loc.4
/var/folders/wq/x3vp_84133jc_nxh28zg58gh0000gn/T//ccgUFtj2.s:40     .text:00000004 L0
/var/folders/wq/x3vp_84133jc_nxh28zg58gh0000gn/T//ccgUFtj2.s:45     .text:00000004 .Loc.5
/var/folders/wq/x3vp_84133jc_nxh28zg58gh0000gn/T//ccgUFtj2.s:47     .text:00000006 .Loc.6
/var/folders/wq/x3vp_84133jc_nxh28zg58gh0000gn/T//ccgUFtj2.s:49     .text:00000006 .Loc.7
/var/folders/wq/x3vp_84133jc_nxh28zg58gh0000gn/T//ccgUFtj2.s:50     .text:00000006 .Loc.8
/var/folders/wq/x3vp_84133jc_nxh28zg58gh0000gn/T//ccgUFtj2.s:51     .text:00000006 .Loc.9
/var/folders/wq/x3vp_84133jc_nxh28zg58gh0000gn/T//ccgUFtj2.s:54     .text:00000008 .Loc.10
/var/folders/wq/x3vp_84133jc_nxh28zg58gh0000gn/T//ccgUFtj2.s:58     .text:0000000a .Loc.11
/var/folders/wq/x3vp_84133jc_nxh28zg58gh0000gn/T//ccgUFtj2.s:59     .text:0000000a .Loc.12
/var/folders/wq/x3vp_84133jc_nxh28zg58gh0000gn/T//ccgUFtj2.s:64     .text:0000000e .Loc.13
/var/folders/wq/x3vp_84133jc_nxh28zg58gh0000gn/T//ccgUFtj2.s:67     .text:00000010 .Loc.14
/var/folders/wq/x3vp_84133jc_nxh28zg58gh0000gn/T//ccgUFtj2.s:68     .text:00000010 .Loc.15
/var/folders/wq/x3vp_84133jc_nxh28zg58gh0000gn/T//ccgUFtj2.s:72     .text:00000014 .Loc.16
/var/folders/wq/x3vp_84133jc_nxh28zg58gh0000gn/T//ccgUFtj2.s:75     .text:00000016 .Loc.17
/var/folders/wq/x3vp_84133jc_nxh28zg58gh0000gn/T//ccgUFtj2.s:78     .text:00000018 .Loc.18
/var/folders/wq/x3vp_84133jc_nxh28zg58gh0000gn/T//ccgUFtj2.s:79     .text:00000018 .Loc.19
/var/folders/wq/x3vp_84133jc_nxh28zg58gh0000gn/T//ccgUFtj2.s:80     .text:00000018 .Loc.20
/var/folders/wq/x3vp_84133jc_nxh28zg58gh0000gn/T//ccgUFtj2.s:85     .text:0000001c .Loc.21
/var/folders/wq/x3vp_84133jc_nxh28zg58gh0000gn/T//ccgUFtj2.s:86     .text:0000001c .Loc.22
/var/folders/wq/x3vp_84133jc_nxh28zg58gh0000gn/T//ccgUFtj2.s:89     .text:00000020 .Loc.23
/var/folders/wq/x3vp_84133jc_nxh28zg58gh0000gn/T//ccgUFtj2.s:92     .text:00000022 .Loc.24
/var/folders/wq/x3vp_84133jc_nxh28zg58gh0000gn/T//ccgUFtj2.s:96     .text:00000024 .Loc.25
/var/folders/wq/x3vp_84133jc_nxh28zg58gh0000gn/T//ccgUFtj2.s:97     .text:00000024 .Loc.26
/var/folders/wq/x3vp_84133jc_nxh28zg58gh0000gn/T//ccgUFtj2.s:101    .text:00000028 .Loc.27
/var/folders/wq/x3vp_84133jc_nxh28zg58gh0000gn/T//ccgUFtj2.s:103    .text:0000002a .Loc.28
/var/folders/wq/x3vp_84133jc_nxh28zg58gh0000gn/T//ccgUFtj2.s:106    .text:0000002c .Loc.29
/var/folders/wq/x3vp_84133jc_nxh28zg58gh0000gn/T//ccgUFtj2.s:111    .text:00000030 .Loc.30
/var/folders/wq/x3vp_84133jc_nxh28zg58gh0000gn/T//ccgUFtj2.s:114    .text:00000032 .Loc.31
/var/folders/wq/x3vp_84133jc_nxh28zg58gh0000gn/T//ccgUFtj2.s:116    .text:00000034 L0
/var/folders/wq/x3vp_84133jc_nxh28zg58gh0000gn/T//ccgUFtj2.s:121    .text:00000034 hex_decode
/var/folders/wq/x3vp_84133jc_nxh28zg58gh0000gn/T//ccgUFtj2.s:124    .text:00000034 .Loc.32
/var/folders/wq/x3vp_84133jc_nxh28zg58gh0000gn/T//ccgUFtj2.s:125    .text:00000034 L0
/var/folders/wq/x3vp_84133jc_nxh28zg58gh0000gn/T//ccgUFtj2.s:130    .text:00000034 .Loc.33
/var/folders/wq/x3vp_84133jc_nxh28zg58gh0000gn/T//ccgUFtj2.s:133    .text:00000038 .Loc.34
/var/folders/wq/x3vp_84133jc_nxh28zg58gh0000gn/T//ccgUFtj2.s:135    .text:00000038 .Loc.35
/var/folders/wq/x3vp_84133jc_nxh28zg58gh0000gn/T//ccgUFtj2.s:137    .text:00000038 .Loc.36
/var/folders/wq/x3vp_84133jc_nxh28zg58gh0000gn/T//ccgUFtj2.s:139    .text:0000003a .Loc.37
/var/folders/wq/x3vp_84133jc_nxh28zg58gh0000gn/T//ccgUFtj2.s:144    .text:0000003e .Loc.38
/var/folders/wq/x3vp_84133jc_nxh28zg58gh0000gn/T//ccgUFtj2.s:145    .text:0000003e .Loc.39
/var/folders/wq/x3vp_84133jc_nxh28zg58gh0000gn/T//ccgUFtj2.s:150    .text:00000044 .Loc.40
/var/folders/wq/x3vp_84133jc_nxh28zg58gh0000gn/T//ccgUFtj2.s:154    .text:00000048 .Loc.41
/var/folders/wq/x3vp_84133jc_nxh28zg58gh0000gn/T//ccgUFtj2.s:159    .text:0000004a .Loc.42
/var/folders/wq/x3vp_84133jc_nxh28zg58gh0000gn/T//ccgUFtj2.s:160    .text:0000004a .Loc.43
/var/folders/wq/x3vp_84133jc_nxh28zg58gh0000gn/T//ccgUFtj2.s:163    .text:0000004c .Loc.44
/var/folders/wq/x3vp_84133jc_nxh28zg58gh0000gn/T//ccgUFtj2.s:164    .text:0000004c .Loc.45
/var/folders/wq/x3vp_84133jc_nxh28zg58gh0000gn/T//ccgUFtj2.s:169    .text:00000052 .Loc.46
/var/folders/wq/x3vp_84133jc_nxh28zg58gh0000gn/T//ccgUFtj2.s:170    .text:00000052 .Loc.47
/var/folders/wq/x3vp_84133jc_nxh28zg58gh0000gn/T//ccgUFtj2.s:173    .text:00000056 .Loc.48
/var/folders/wq/x3vp_84133jc_nxh28zg58gh0000gn/T//ccgUFtj2.s:176    .text:0000005a .Loc.49
/var/folders/wq/x3vp_84133jc_nxh28zg58gh0000gn/T//ccgUFtj2.s:177    .text:0000005a .Loc.50
/var/folders/wq/x3vp_84133jc_nxh28zg58gh0000gn/T//ccgUFtj2.s:181    .text:0000005c .Loc.51
/var/folders/wq/x3vp_84133jc_nxh28zg58gh0000gn/T//ccgUFtj2.s:182    .text:0000005c .Loc.52
/var/folders/wq/x3vp_84133jc_nxh28zg58gh0000gn/T//ccgUFtj2.s:185    .text:00000060 .Loc.53
/var/folders/wq/x3vp_84133jc_nxh28zg58gh0000gn/T//ccgUFtj2.s:188    .text:00000064 .Loc.54
/var/folders/wq/x3vp_84133jc_nxh28zg58gh0000gn/T//ccgUFtj2.s:189    .text:00000064 .Loc.55
/var/folders/wq/x3vp_84133jc_nxh28zg58gh0000gn/T//ccgUFtj2.s:192    .text:00000066 .Loc.56
/var/folders/wq/x3vp_84133jc_nxh28zg58gh0000gn/T//ccgUFtj2.s:195    .text:00000068 .Loc.57
/var/folders/wq/x3vp_84133jc_nxh28zg58gh0000gn/T//ccgUFtj2.s:200    .text:0000006e .Loc.58
/var/folders/wq/x3vp_84133jc_nxh28zg58gh0000gn/T//ccgUFtj2.s:201    .text:0000006e .Loc.59
/var/folders/wq/x3vp_84133jc_nxh28zg58gh0000gn/T//ccgUFtj2.s:205    .text:00000072 .Loc.60
/var/folders/wq/x3vp_84133jc_nxh28zg58gh0000gn/T//ccgUFtj2.s:212    .text:00000078 .Loc.61
/var/folders/wq/x3vp_84133jc_nxh28zg58gh0000gn/T//ccgUFtj2.s:213    .text:00000078 .Loc.62
/var/folders/wq/x3vp_84133jc_nxh28zg58gh0000gn/T//ccgUFtj2.s:216    .text:0000007c .Loc.63
/var/folders/wq/x3vp_84133jc_nxh28zg58gh0000gn/T//ccgUFtj2.s:219    .text:00000080 .Loc.64
/var/folders/wq/x3vp_84133jc_nxh28zg58gh0000gn/T//ccgUFtj2.s:220    .text:00000080 .Loc.65
/var/folders/wq/x3vp_84133jc_nxh28zg58gh0000gn/T//ccgUFtj2.s:224    .text:00000082 .Loc.66
/var/folders/wq/x3vp_84133jc_nxh28zg58gh0000gn/T//ccgUFtj2.s:227    .text:00000084 .Loc.67
/var/folders/wq/x3vp_84133jc_nxh28zg58gh0000gn/T//ccgUFtj2.s:231    .text:00000086 .Loc.68
/var/folders/wq/x3vp_84133jc_nxh28zg58gh0000gn/T//ccgUFtj2.s:232    .text:00000086 .Loc.69
/var/folders/wq/x3vp_84133jc_nxh28zg58gh0000gn/T//ccgUFtj2.s:235    .text:0000008a .Loc.70
/var/folders/wq/x3vp_84133jc_nxh28zg58gh0000gn/T//ccgUFtj2.s:240    .text:0000008e .Loc.71
/var/folders/wq/x3vp_84133jc_nxh28zg58gh0000gn/T//ccgUFtj2.s:244    .text:00000092 .Loc.72
/var/folders/wq/x3vp_84133jc_nxh28zg58gh0000gn/T//ccgUFtj2.s:248    .text:00000094 .Loc.73
/var/folders/wq/x3vp_84133jc_nxh28zg58gh0000gn/T//ccgUFtj2.s:249    .text:00000094 .Loc.74
/var/folders/wq/x3vp_84133jc_nxh28zg58gh0000gn/T//ccgUFtj2.s:252    .text:00000096 .Loc.75
/var/folders/wq/x3vp_84133jc_nxh28zg58gh0000gn/T//ccgUFtj2.s:256    .text:00000098 .Loc.76
/var/folders/wq/x3vp_84133jc_nxh28zg58gh0000gn/T//ccgUFtj2.s:257    .text:00000098 .Loc.77
/var/folders/wq/x3vp_84133jc_nxh28zg58gh0000gn/T//ccgUFtj2.s:260    .text:0000009c .Loc.78
/var/folders/wq/x3vp_84133jc_nxh28zg58gh0000gn/T//ccgUFtj2.s:263    .text:000000a0 .Loc.79
/var/folders/wq/x3vp_84133jc_nxh28zg58gh0000gn/T//ccgUFtj2.s:264    .text:000000a0 .Loc.80
/var/folders/wq/x3vp_84133jc_nxh28zg58gh0000gn/T//ccgUFtj2.s:269    .text:000000a4 .Loc.81
/var/folders/wq/x3vp_84133jc_nxh28zg58gh0000gn/T//ccgUFtj2.s:279    .text:000000b0 .Loc.82
/var/folders/wq/x3vp_84133jc_nxh28zg58gh0000gn/T//ccgUFtj2.s:280    .text:000000b0 .Loc.83
/var/folders/wq/x3vp_84133jc_nxh28zg58gh0000gn/T//ccgUFtj2.s:283    .text:000000b4 .Loc.84
/var/folders/wq/x3vp_84133jc_nxh28zg58gh0000gn/T//ccgUFtj2.s:286    .text:000000b8 .Loc.85
/var/folders/wq/x3vp_84133jc_nxh28zg58gh0000gn/T//ccgUFtj2.s:287    .text:000000b8 .Loc.86
/var/folders/wq/x3vp_84133jc_nxh28zg58gh0000gn/T//ccgUFtj2.s:291    .text:000000bc .Loc.87
/var/folders/wq/x3vp_84133jc_nxh28zg58gh0000gn/T//ccgUFtj2.s:295    .text:000000be L0
/var/folders/wq/x3vp_84133jc_nxh28zg58gh0000gn/T//ccgUFtj2.s:300    .text:000000be simpleserial_addcmd_flags
/var/folders/wq/x3vp_84133jc_nxh28zg58gh0000gn/T//ccgUFtj2.s:303    .text:000000be .Loc.88
/var/folders/wq/x3vp_84133jc_nxh28zg58gh0000gn/T//ccgUFtj2.s:304    .text:000000be L0
/var/folders/wq/x3vp_84133jc_nxh28zg58gh0000gn/T//ccgUFtj2.s:309    .text:000000be .Loc.89
/var/folders/wq/x3vp_84133jc_nxh28zg58gh0000gn/T//ccgUFtj2.s:311    .text:000000c0 .Loc.90
/var/folders/wq/x3vp_84133jc_nxh28zg58gh0000gn/T//ccgUFtj2.s:312    .text:000000c0 .Loc.91
/var/folders/wq/x3vp_84133jc_nxh28zg58gh0000gn/T//ccgUFtj2.s:1061   .bss:00000060 num_commands
/var/folders/wq/x3vp_84133jc_nxh28zg58gh0000gn/T//ccgUFtj2.s:316    .text:000000c8 .Loc.92
/var/folders/wq/x3vp_84133jc_nxh28zg58gh0000gn/T//ccgUFtj2.s:320    .text:000000ce .Loc.93
/var/folders/wq/x3vp_84133jc_nxh28zg58gh0000gn/T//ccgUFtj2.s:321    .text:000000ce .Loc.94
/var/folders/wq/x3vp_84133jc_nxh28zg58gh0000gn/T//ccgUFtj2.s:325    .text:000000d4 .Loc.95
/var/folders/wq/x3vp_84133jc_nxh28zg58gh0000gn/T//ccgUFtj2.s:326    .text:000000d4 .Loc.96
                             .bss:00000000 commands
/var/folders/wq/x3vp_84133jc_nxh28zg58gh0000gn/T//ccgUFtj2.s:336    .text:000000e6 .Loc.97
/var/folders/wq/x3vp_84133jc_nxh28zg58gh0000gn/T//ccgUFtj2.s:337    .text:000000e6 .Loc.98
/var/folders/wq/x3vp_84133jc_nxh28zg58gh0000gn/T//ccgUFtj2.s:340    .text:000000ea .Loc.99
/var/folders/wq/x3vp_84133jc_nxh28zg58gh0000gn/T//ccgUFtj2.s:341    .text:000000ea .Loc.100
/var/folders/wq/x3vp_84133jc_nxh28zg58gh0000gn/T//ccgUFtj2.s:344    .text:000000ee .Loc.101
/var/folders/wq/x3vp_84133jc_nxh28zg58gh0000gn/T//ccgUFtj2.s:345    .text:000000ee .Loc.102
/var/folders/wq/x3vp_84133jc_nxh28zg58gh0000gn/T//ccgUFtj2.s:347    .text:000000f0 .Loc.103
/var/folders/wq/x3vp_84133jc_nxh28zg58gh0000gn/T//ccgUFtj2.s:348    .text:000000f0 .Loc.104
/var/folders/wq/x3vp_84133jc_nxh28zg58gh0000gn/T//ccgUFtj2.s:353    .text:000000fc .Loc.105
/var/folders/wq/x3vp_84133jc_nxh28zg58gh0000gn/T//ccgUFtj2.s:354    .text:000000fc .Loc.106
/var/folders/wq/x3vp_84133jc_nxh28zg58gh0000gn/T//ccgUFtj2.s:358    .text:00000100 .Loc.107
/var/folders/wq/x3vp_84133jc_nxh28zg58gh0000gn/T//ccgUFtj2.s:362    .text:00000102 .Loc.108
/var/folders/wq/x3vp_84133jc_nxh28zg58gh0000gn/T//ccgUFtj2.s:367    .text:00000106 .Loc.109
/var/folders/wq/x3vp_84133jc_nxh28zg58gh0000gn/T//ccgUFtj2.s:369    .text:00000108 L0
/var/folders/wq/x3vp_84133jc_nxh28zg58gh0000gn/T//ccgUFtj2.s:374    .text:00000108 simpleserial_addcmd
/var/folders/wq/x3vp_84133jc_nxh28zg58gh0000gn/T//ccgUFtj2.s:377    .text:00000108 .Loc.110
/var/folders/wq/x3vp_84133jc_nxh28zg58gh0000gn/T//ccgUFtj2.s:378    .text:00000108 L0
/var/folders/wq/x3vp_84133jc_nxh28zg58gh0000gn/T//ccgUFtj2.s:383    .text:00000108 .Loc.111
/var/folders/wq/x3vp_84133jc_nxh28zg58gh0000gn/T//ccgUFtj2.s:384    .text:00000108 .Loc.112
/var/folders/wq/x3vp_84133jc_nxh28zg58gh0000gn/T//ccgUFtj2.s:388    .text:0000010e .Loc.113
/var/folders/wq/x3vp_84133jc_nxh28zg58gh0000gn/T//ccgUFtj2.s:389    .text:0000010e L0
/var/folders/wq/x3vp_84133jc_nxh28zg58gh0000gn/T//ccgUFtj2.s:394    .text:0000010e simpleserial_init
/var/folders/wq/x3vp_84133jc_nxh28zg58gh0000gn/T//ccgUFtj2.s:396    .text:0000010e .Loc.114
/var/folders/wq/x3vp_84133jc_nxh28zg58gh0000gn/T//ccgUFtj2.s:397    .text:0000010e L0
/var/folders/wq/x3vp_84133jc_nxh28zg58gh0000gn/T//ccgUFtj2.s:402    .text:0000010e .Loc.115
/var/folders/wq/x3vp_84133jc_nxh28zg58gh0000gn/T//ccgUFtj2.s:410    .text:0000011c .Loc.116
/var/folders/wq/x3vp_84133jc_nxh28zg58gh0000gn/T//ccgUFtj2.s:591    .text:000001bc ss_get_commands
/var/folders/wq/x3vp_84133jc_nxh28zg58gh0000gn/T//ccgUFtj2.s:418    .text:0000012a .Loc.117
/var/folders/wq/x3vp_84133jc_nxh28zg58gh0000gn/T//ccgUFtj2.s:537    .text:00000194 ss_num_commands
/var/folders/wq/x3vp_84133jc_nxh28zg58gh0000gn/T//ccgUFtj2.s:426    .text:00000138 L0
/var/folders/wq/x3vp_84133jc_nxh28zg58gh0000gn/T//ccgUFtj2.s:431    .text:00000138 simpleserial_put
/var/folders/wq/x3vp_84133jc_nxh28zg58gh0000gn/T//ccgUFtj2.s:434    .text:00000138 .Loc.118
/var/folders/wq/x3vp_84133jc_nxh28zg58gh0000gn/T//ccgUFtj2.s:435    .text:00000138 L0
/var/folders/wq/x3vp_84133jc_nxh28zg58gh0000gn/T//ccgUFtj2.s:436    .text:00000138 .Loc.119
/var/folders/wq/x3vp_84133jc_nxh28zg58gh0000gn/T//ccgUFtj2.s:464    .text:00000148 .Loc.120
/var/folders/wq/x3vp_84133jc_nxh28zg58gh0000gn/T//ccgUFtj2.s:467    .text:0000014c .Loc.121
/var/folders/wq/x3vp_84133jc_nxh28zg58gh0000gn/T//ccgUFtj2.s:469    .text:0000014c .Loc.122
/var/folders/wq/x3vp_84133jc_nxh28zg58gh0000gn/T//ccgUFtj2.s:470    .text:0000014c .Loc.123
/var/folders/wq/x3vp_84133jc_nxh28zg58gh0000gn/T//ccgUFtj2.s:478    .text:00000156 .Loc.124
/var/folders/wq/x3vp_84133jc_nxh28zg58gh0000gn/T//ccgUFtj2.s:479    .text:00000156 .Loc.125
/var/folders/wq/x3vp_84133jc_nxh28zg58gh0000gn/T//ccgUFtj2.s:484    .text:0000015c .Loc.126
/var/folders/wq/x3vp_84133jc_nxh28zg58gh0000gn/T//ccgUFtj2.s:487    .text:0000015e .Loc.127
/var/folders/wq/x3vp_84133jc_nxh28zg58gh0000gn/T//ccgUFtj2.s:491    .text:00000162 .Loc.128
/var/folders/wq/x3vp_84133jc_nxh28zg58gh0000gn/T//ccgUFtj2.s:495    .text:00000168 .Loc.129
/var/folders/wq/x3vp_84133jc_nxh28zg58gh0000gn/T//ccgUFtj2.s:500    .text:0000016c .Loc.130
/var/folders/wq/x3vp_84133jc_nxh28zg58gh0000gn/T//ccgUFtj2.s:501    .text:0000016c .Loc.131
/var/folders/wq/x3vp_84133jc_nxh28zg58gh0000gn/T//ccgUFtj2.s:504    .text:0000016e .Loc.132
/var/folders/wq/x3vp_84133jc_nxh28zg58gh0000gn/T//ccgUFtj2.s:508    .text:00000174 .Loc.133
/var/folders/wq/x3vp_84133jc_nxh28zg58gh0000gn/T//ccgUFtj2.s:1058   .rodata:00000000 hex_lookup
/var/folders/wq/x3vp_84133jc_nxh28zg58gh0000gn/T//ccgUFtj2.s:514    .text:0000017e .Loc.134
/var/folders/wq/x3vp_84133jc_nxh28zg58gh0000gn/T//ccgUFtj2.s:515    .text:0000017e .Loc.135
/var/folders/wq/x3vp_84133jc_nxh28zg58gh0000gn/T//ccgUFtj2.s:518    .text:00000182 .Loc.136
/var/folders/wq/x3vp_84133jc_nxh28zg58gh0000gn/T//ccgUFtj2.s:522    .text:00000188 .Loc.137
/var/folders/wq/x3vp_84133jc_nxh28zg58gh0000gn/T//ccgUFtj2.s:528    .text:00000192 .Loc.138
/var/folders/wq/x3vp_84133jc_nxh28zg58gh0000gn/T//ccgUFtj2.s:529    .text:00000192 .Loc.139
/var/folders/wq/x3vp_84133jc_nxh28zg58gh0000gn/T//ccgUFtj2.s:532    .text:00000194 L0
/var/folders/wq/x3vp_84133jc_nxh28zg58gh0000gn/T//ccgUFtj2.s:540    .text:00000194 .Loc.140
/var/folders/wq/x3vp_84133jc_nxh28zg58gh0000gn/T//ccgUFtj2.s:541    .text:00000194 L0
/var/folders/wq/x3vp_84133jc_nxh28zg58gh0000gn/T//ccgUFtj2.s:542    .text:00000194 .Loc.141
/var/folders/wq/x3vp_84133jc_nxh28zg58gh0000gn/T//ccgUFtj2.s:562    .text:0000019e .Loc.142
/var/folders/wq/x3vp_84133jc_nxh28zg58gh0000gn/T//ccgUFtj2.s:563    .text:0000019e .Loc.143
/var/folders/wq/x3vp_84133jc_nxh28zg58gh0000gn/T//ccgUFtj2.s:566    .text:000001a2 .Loc.144
/var/folders/wq/x3vp_84133jc_nxh28zg58gh0000gn/T//ccgUFtj2.s:568    .text:000001a4 .Loc.145
/var/folders/wq/x3vp_84133jc_nxh28zg58gh0000gn/T//ccgUFtj2.s:574    .text:000001ac .Loc.146
/var/folders/wq/x3vp_84133jc_nxh28zg58gh0000gn/T//ccgUFtj2.s:578    .text:000001b2 .Loc.147
/var/folders/wq/x3vp_84133jc_nxh28zg58gh0000gn/T//ccgUFtj2.s:579    .text:000001b2 .Loc.148
/var/folders/wq/x3vp_84133jc_nxh28zg58gh0000gn/T//ccgUFtj2.s:586    .text:000001bc L0
/var/folders/wq/x3vp_84133jc_nxh28zg58gh0000gn/T//ccgUFtj2.s:594    .text:000001bc .Loc.149
/var/folders/wq/x3vp_84133jc_nxh28zg58gh0000gn/T//ccgUFtj2.s:595    .text:000001bc L0
/var/folders/wq/x3vp_84133jc_nxh28zg58gh0000gn/T//ccgUFtj2.s:596    .text:000001bc .Loc.150
/var/folders/wq/x3vp_84133jc_nxh28zg58gh0000gn/T//ccgUFtj2.s:618    .text:000001ca .Loc.151
/var/folders/wq/x3vp_84133jc_nxh28zg58gh0000gn/T//ccgUFtj2.s:619    .text:000001ca .Loc.152
/var/folders/wq/x3vp_84133jc_nxh28zg58gh0000gn/T//ccgUFtj2.s:621    .text:000001ca .Loc.153
/var/folders/wq/x3vp_84133jc_nxh28zg58gh0000gn/T//ccgUFtj2.s:623    .text:000001ca .Loc.154
/var/folders/wq/x3vp_84133jc_nxh28zg58gh0000gn/T//ccgUFtj2.s:628    .text:000001d4 .Loc.155
/var/folders/wq/x3vp_84133jc_nxh28zg58gh0000gn/T//ccgUFtj2.s:630    .text:000001d6 .Loc.156
/var/folders/wq/x3vp_84133jc_nxh28zg58gh0000gn/T//ccgUFtj2.s:632    .text:000001d8 .Loc.157
/var/folders/wq/x3vp_84133jc_nxh28zg58gh0000gn/T//ccgUFtj2.s:636    .text:000001da .Loc.158
/var/folders/wq/x3vp_84133jc_nxh28zg58gh0000gn/T//ccgUFtj2.s:637    .text:000001da .Loc.159
/var/folders/wq/x3vp_84133jc_nxh28zg58gh0000gn/T//ccgUFtj2.s:640    .text:000001de .Loc.160
/var/folders/wq/x3vp_84133jc_nxh28zg58gh0000gn/T//ccgUFtj2.s:645    .text:000001e4 .Loc.161
/var/folders/wq/x3vp_84133jc_nxh28zg58gh0000gn/T//ccgUFtj2.s:651    .text:000001ec .Loc.162
/var/folders/wq/x3vp_84133jc_nxh28zg58gh0000gn/T//ccgUFtj2.s:656    .text:000001f2 .Loc.163
/var/folders/wq/x3vp_84133jc_nxh28zg58gh0000gn/T//ccgUFtj2.s:659    .text:000001f6 .Loc.164
/var/folders/wq/x3vp_84133jc_nxh28zg58gh0000gn/T//ccgUFtj2.s:660    .text:000001f6 .Loc.165
/var/folders/wq/x3vp_84133jc_nxh28zg58gh0000gn/T//ccgUFtj2.s:672    .text:00000204 .Loc.166
/var/folders/wq/x3vp_84133jc_nxh28zg58gh0000gn/T//ccgUFtj2.s:673    .text:00000204 .Loc.167
/var/folders/wq/x3vp_84133jc_nxh28zg58gh0000gn/T//ccgUFtj2.s:685    .text:0000021a .Loc.168
/var/folders/wq/x3vp_84133jc_nxh28zg58gh0000gn/T//ccgUFtj2.s:693    .text:00000228 .Loc.169
/var/folders/wq/x3vp_84133jc_nxh28zg58gh0000gn/T//ccgUFtj2.s:696    .text:0000022c .Loc.170
/var/folders/wq/x3vp_84133jc_nxh28zg58gh0000gn/T//ccgUFtj2.s:697    .text:0000022c .Loc.171
/var/folders/wq/x3vp_84133jc_nxh28zg58gh0000gn/T//ccgUFtj2.s:702    .text:00000234 .Loc.172
/var/folders/wq/x3vp_84133jc_nxh28zg58gh0000gn/T//ccgUFtj2.s:703    .text:00000234 .Loc.173
/var/folders/wq/x3vp_84133jc_nxh28zg58gh0000gn/T//ccgUFtj2.s:707    .text:0000023a .Loc.174
/var/folders/wq/x3vp_84133jc_nxh28zg58gh0000gn/T//ccgUFtj2.s:708    .text:0000023a .Loc.175
/var/folders/wq/x3vp_84133jc_nxh28zg58gh0000gn/T//ccgUFtj2.s:711    .text:0000023c .Loc.176
/var/folders/wq/x3vp_84133jc_nxh28zg58gh0000gn/T//ccgUFtj2.s:714    .text:0000023e L0
/var/folders/wq/x3vp_84133jc_nxh28zg58gh0000gn/T//ccgUFtj2.s:719    .text:0000023e simpleserial_get
/var/folders/wq/x3vp_84133jc_nxh28zg58gh0000gn/T//ccgUFtj2.s:721    .text:0000023e .Loc.177
/var/folders/wq/x3vp_84133jc_nxh28zg58gh0000gn/T//ccgUFtj2.s:722    .text:0000023e L0
/var/folders/wq/x3vp_84133jc_nxh28zg58gh0000gn/T//ccgUFtj2.s:777    .text:0000025e .Loc.178
/var/folders/wq/x3vp_84133jc_nxh28zg58gh0000gn/T//ccgUFtj2.s:778    .text:0000025e .Loc.179
/var/folders/wq/x3vp_84133jc_nxh28zg58gh0000gn/T//ccgUFtj2.s:779    .text:0000025e .Loc.180
/var/folders/wq/x3vp_84133jc_nxh28zg58gh0000gn/T//ccgUFtj2.s:780    .text:0000025e .Loc.181
/var/folders/wq/x3vp_84133jc_nxh28zg58gh0000gn/T//ccgUFtj2.s:781    .text:0000025e .Loc.182
/var/folders/wq/x3vp_84133jc_nxh28zg58gh0000gn/T//ccgUFtj2.s:784    .text:00000262 .Loc.183
/var/folders/wq/x3vp_84133jc_nxh28zg58gh0000gn/T//ccgUFtj2.s:785    .text:00000262 .Loc.184
/var/folders/wq/x3vp_84133jc_nxh28zg58gh0000gn/T//ccgUFtj2.s:786    .text:00000262 .Loc.185
/var/folders/wq/x3vp_84133jc_nxh28zg58gh0000gn/T//ccgUFtj2.s:791    .text:0000026e .Loc.186
/var/folders/wq/x3vp_84133jc_nxh28zg58gh0000gn/T//ccgUFtj2.s:796    .text:00000272 .Loc.187
/var/folders/wq/x3vp_84133jc_nxh28zg58gh0000gn/T//ccgUFtj2.s:797    .text:00000272 .Loc.188
/var/folders/wq/x3vp_84133jc_nxh28zg58gh0000gn/T//ccgUFtj2.s:801    .text:00000278 .Loc.189
/var/folders/wq/x3vp_84133jc_nxh28zg58gh0000gn/T//ccgUFtj2.s:802    .text:00000278 .Loc.190
/var/folders/wq/x3vp_84133jc_nxh28zg58gh0000gn/T//ccgUFtj2.s:809    .text:0000027e .Loc.191
/var/folders/wq/x3vp_84133jc_nxh28zg58gh0000gn/T//ccgUFtj2.s:827    .text:0000029c .Loc.192
/var/folders/wq/x3vp_84133jc_nxh28zg58gh0000gn/T//ccgUFtj2.s:830    .text:000002a0 .Loc.193
/var/folders/wq/x3vp_84133jc_nxh28zg58gh0000gn/T//ccgUFtj2.s:833    .text:000002a4 .Loc.194
/var/folders/wq/x3vp_84133jc_nxh28zg58gh0000gn/T//ccgUFtj2.s:838    .text:000002aa .Loc.195
/var/folders/wq/x3vp_84133jc_nxh28zg58gh0000gn/T//ccgUFtj2.s:839    .text:000002aa .Loc.196
/var/folders/wq/x3vp_84133jc_nxh28zg58gh0000gn/T//ccgUFtj2.s:847    .text:000002b6 .Loc.197
/var/folders/wq/x3vp_84133jc_nxh28zg58gh0000gn/T//ccgUFtj2.s:852    .text:000002be .Loc.198
/var/folders/wq/x3vp_84133jc_nxh28zg58gh0000gn/T//ccgUFtj2.s:859    .text:000002c8 .Loc.199
/var/folders/wq/x3vp_84133jc_nxh28zg58gh0000gn/T//ccgUFtj2.s:860    .text:000002c8 .Loc.200
/var/folders/wq/x3vp_84133jc_nxh28zg58gh0000gn/T//ccgUFtj2.s:866    .text:000002d2 .Loc.201
/var/folders/wq/x3vp_84133jc_nxh28zg58gh0000gn/T//ccgUFtj2.s:867    .text:000002d2 .Loc.202
/var/folders/wq/x3vp_84133jc_nxh28zg58gh0000gn/T//ccgUFtj2.s:868    .text:000002d2 .Loc.203
/var/folders/wq/x3vp_84133jc_nxh28zg58gh0000gn/T//ccgUFtj2.s:871    .text:000002d6 .Loc.204
/var/folders/wq/x3vp_84133jc_nxh28zg58gh0000gn/T//ccgUFtj2.s:873    .text:000002d8 .Loc.205
/var/folders/wq/x3vp_84133jc_nxh28zg58gh0000gn/T//ccgUFtj2.s:874    .text:000002d8 .Loc.206
/var/folders/wq/x3vp_84133jc_nxh28zg58gh0000gn/T//ccgUFtj2.s:877    .text:000002dc .Loc.207
/var/folders/wq/x3vp_84133jc_nxh28zg58gh0000gn/T//ccgUFtj2.s:879    .text:000002de .Loc.208
/var/folders/wq/x3vp_84133jc_nxh28zg58gh0000gn/T//ccgUFtj2.s:880    .text:000002de .Loc.209
/var/folders/wq/x3vp_84133jc_nxh28zg58gh0000gn/T//ccgUFtj2.s:891    .text:000002f2 .Loc.210
/var/folders/wq/x3vp_84133jc_nxh28zg58gh0000gn/T//ccgUFtj2.s:894    .text:000002f6 .Loc.211
/var/folders/wq/x3vp_84133jc_nxh28zg58gh0000gn/T//ccgUFtj2.s:895    .text:000002f6 .Loc.212
/var/folders/wq/x3vp_84133jc_nxh28zg58gh0000gn/T//ccgUFtj2.s:911    .text:00000310 .Loc.213
/var/folders/wq/x3vp_84133jc_nxh28zg58gh0000gn/T//ccgUFtj2.s:915    .text:00000314 .Loc.214
/var/folders/wq/x3vp_84133jc_nxh28zg58gh0000gn/T//ccgUFtj2.s:928    .text:00000328 .Loc.215
/var/folders/wq/x3vp_84133jc_nxh28zg58gh0000gn/T//ccgUFtj2.s:929    .text:00000328 .Loc.216
/var/folders/wq/x3vp_84133jc_nxh28zg58gh0000gn/T//ccgUFtj2.s:935    .text:00000332 .Loc.217
/var/folders/wq/x3vp_84133jc_nxh28zg58gh0000gn/T//ccgUFtj2.s:940    .text:00000338 .Loc.218
/var/folders/wq/x3vp_84133jc_nxh28zg58gh0000gn/T//ccgUFtj2.s:941    .text:00000338 .Loc.219
/var/folders/wq/x3vp_84133jc_nxh28zg58gh0000gn/T//ccgUFtj2.s:944    .text:0000033c .Loc.220
/var/folders/wq/x3vp_84133jc_nxh28zg58gh0000gn/T//ccgUFtj2.s:945    .text:0000033c .Loc.221
/var/folders/wq/x3vp_84133jc_nxh28zg58gh0000gn/T//ccgUFtj2.s:948    .text:00000340 .Loc.222
/var/folders/wq/x3vp_84133jc_nxh28zg58gh0000gn/T//ccgUFtj2.s:950    .text:00000344 L0
/var/folders/wq/x3vp_84133jc_nxh28zg58gh0000gn/T//ccgUFtj2.s:953    .text:00000346 .Loc.223
/var/folders/wq/x3vp_84133jc_nxh28zg58gh0000gn/T//ccgUFtj2.s:954    .text:00000346 .Loc.224
/var/folders/wq/x3vp_84133jc_nxh28zg58gh0000gn/T//ccgUFtj2.s:962    .text:00000352 .Loc.225
/var/folders/wq/x3vp_84133jc_nxh28zg58gh0000gn/T//ccgUFtj2.s:965    .text:00000354 .Loc.226
/var/folders/wq/x3vp_84133jc_nxh28zg58gh0000gn/T//ccgUFtj2.s:970    .text:0000035c .Loc.227
/var/folders/wq/x3vp_84133jc_nxh28zg58gh0000gn/T//ccgUFtj2.s:981    .text:00000370 .Loc.228
/var/folders/wq/x3vp_84133jc_nxh28zg58gh0000gn/T//ccgUFtj2.s:983    .text:00000374 L0
/var/folders/wq/x3vp_84133jc_nxh28zg58gh0000gn/T//ccgUFtj2.s:985    .text:00000376 .Loc.229
/var/folders/wq/x3vp_84133jc_nxh28zg58gh0000gn/T//ccgUFtj2.s:986    .text:00000376 .Loc.230
/var/folders/wq/x3vp_84133jc_nxh28zg58gh0000gn/T//ccgUFtj2.s:987    .text:00000376 .Loc.231
/var/folders/wq/x3vp_84133jc_nxh28zg58gh0000gn/T//ccgUFtj2.s:998    .text:00000388 .Loc.232
/var/folders/wq/x3vp_84133jc_nxh28zg58gh0000gn/T//ccgUFtj2.s:1004   .text:00000392 .Loc.233
/var/folders/wq/x3vp_84133jc_nxh28zg58gh0000gn/T//ccgUFtj2.s:1015   .text:000003a2 .Loc.234
/var/folders/wq/x3vp_84133jc_nxh28zg58gh0000gn/T//ccgUFtj2.s:1016   .text:000003a2 .Loc.235
/var/folders/wq/x3vp_84133jc_nxh28zg58gh0000gn/T//ccgUFtj2.s:1020   .text:000003a6 .Loc.236
/var/folders/wq/x3vp_84133jc_nxh28zg58gh0000gn/T//ccgUFtj2.s:1025   .text:000003a8 .Loc.237
/var/folders/wq/x3vp_84133jc_nxh28zg58gh0000gn/T//ccgUFtj2.s:1026   .text:000003a8 .Loc.238
/var/folders/wq/x3vp_84133jc_nxh28zg58gh0000gn/T//ccgUFtj2.s:1029   .text:000003ac .Loc.239
/var/folders/wq/x3vp_84133jc_nxh28zg58gh0000gn/T//ccgUFtj2.s:1030   .text:000003ac .Loc.240
/var/folders/wq/x3vp_84133jc_nxh28zg58gh0000gn/T//ccgUFtj2.s:1032   .text:000003b0 L0
/var/folders/wq/x3vp_84133jc_nxh28zg58gh0000gn/T//ccgUFtj2.s:1034   .text:000003b2 .Loc.241
/var/folders/wq/x3vp_84133jc_nxh28zg58gh0000gn/T//ccgUFtj2.s:1036   .text:000003b6 L0
/var/folders/wq/x3vp_84133jc_nxh28zg58gh0000gn/T//ccgUFtj2.s:1038   .text:000003b8 .Loc.242
/var/folders/wq/x3vp_84133jc_nxh28zg58gh0000gn/T//ccgUFtj2.s:1039   .text:000003b8 .Loc.243
/var/folders/wq/x3vp_84133jc_nxh28zg58gh0000gn/T//ccgUFtj2.s:1043   .text:000003be .Loc.244
/var/folders/wq/x3vp_84133jc_nxh28zg58gh0000gn/T//ccgUFtj2.s:1044   .text:000003be .Loc.245
/var/folders/wq/x3vp_84133jc_nxh28zg58gh0000gn/T//ccgUFtj2.s:1049   .text:000003c4 .Loc.246
/var/folders/wq/x3vp_84133jc_nxh28zg58gh0000gn/T//ccgUFtj2.s:1052   .text:000003c6 L0
/var/folders/wq/x3vp_84133jc_nxh28zg58gh0000gn/T//ccgUFtj2.s:1070   .text:000003c6 L0
                     .debug_frame:00000000 L0
/var/folders/wq/x3vp_84133jc_nxh28zg58gh0000gn/T//ccgUFtj2.s:66     .text:00000010 .L7
/var/folders/wq/x3vp_84133jc_nxh28zg58gh0000gn/T//ccgUFtj2.s:110    .text:00000030 .L4
/var/folders/wq/x3vp_84133jc_nxh28zg58gh0000gn/T//ccgUFtj2.s:84     .text:0000001c .L6
/var/folders/wq/x3vp_84133jc_nxh28zg58gh0000gn/T//ccgUFtj2.s:57     .text:0000000a .L3
/var/folders/wq/x3vp_84133jc_nxh28zg58gh0000gn/T//ccgUFtj2.s:94     .text:00000024 .L5
/var/folders/wq/x3vp_84133jc_nxh28zg58gh0000gn/T//ccgUFtj2.s:156    .text:0000004a .L20
/var/folders/wq/x3vp_84133jc_nxh28zg58gh0000gn/T//ccgUFtj2.s:210    .text:00000078 .L11
/var/folders/wq/x3vp_84133jc_nxh28zg58gh0000gn/T//ccgUFtj2.s:255    .text:00000098 .L16
/var/folders/wq/x3vp_84133jc_nxh28zg58gh0000gn/T//ccgUFtj2.s:143    .text:0000003e .L10
/var/folders/wq/x3vp_84133jc_nxh28zg58gh0000gn/T//ccgUFtj2.s:230    .text:00000086 .L13
/var/folders/wq/x3vp_84133jc_nxh28zg58gh0000gn/T//ccgUFtj2.s:180    .text:0000005c .L12
/var/folders/wq/x3vp_84133jc_nxh28zg58gh0000gn/T//ccgUFtj2.s:247    .text:00000094 .L14
/var/folders/wq/x3vp_84133jc_nxh28zg58gh0000gn/T//ccgUFtj2.s:223    .text:00000082 .L21
/var/folders/wq/x3vp_84133jc_nxh28zg58gh0000gn/T//ccgUFtj2.s:278    .text:000000b0 .L18
/var/folders/wq/x3vp_84133jc_nxh28zg58gh0000gn/T//ccgUFtj2.s:271    .text:000000a6 .L11
/var/folders/wq/x3vp_84133jc_nxh28zg58gh0000gn/T//ccgUFtj2.s:194    .text:00000068 .L22
/var/folders/wq/x3vp_84133jc_nxh28zg58gh0000gn/T//ccgUFtj2.s:239    .text:0000008e .L19
/var/folders/wq/x3vp_84133jc_nxh28zg58gh0000gn/T//ccgUFtj2.s:268    .text:000000a4 .L23
/var/folders/wq/x3vp_84133jc_nxh28zg58gh0000gn/T//ccgUFtj2.s:361    .text:00000102 .L27
/var/folders/wq/x3vp_84133jc_nxh28zg58gh0000gn/T//ccgUFtj2.s:498    .text:0000016c .L32
/var/folders/wq/x3vp_84133jc_nxh28zg58gh0000gn/T//ccgUFtj2.s:477    .text:00000156 .L31
/var/folders/wq/x3vp_84133jc_nxh28zg58gh0000gn/T//ccgUFtj2.s:670    .text:00000204 .L36
/var/folders/wq/x3vp_84133jc_nxh28zg58gh0000gn/T//ccgUFtj2.s:635    .text:000001da .L35
/var/folders/wq/x3vp_84133jc_nxh28zg58gh0000gn/T//ccgUFtj2.s:826    .text:0000029c .L42
/var/folders/wq/x3vp_84133jc_nxh28zg58gh0000gn/T//ccgUFtj2.s:837    .text:000002aa .L44
/var/folders/wq/x3vp_84133jc_nxh28zg58gh0000gn/T//ccgUFtj2.s:1014   .text:000003a2 .L39
/var/folders/wq/x3vp_84133jc_nxh28zg58gh0000gn/T//ccgUFtj2.s:905    .text:00000308 .L41
/var/folders/wq/x3vp_84133jc_nxh28zg58gh0000gn/T//ccgUFtj2.s:807    .text:0000027e .L37
/var/folders/wq/x3vp_84133jc_nxh28zg58gh0000gn/T//ccgUFtj2.s:1023   .text:000003a8 .L48
/var/folders/wq/x3vp_84133jc_nxh28zg58gh0000gn/T//ccgUFtj2.s:952    .text:00000346 .L49
/var/folders/wq/x3vp_84133jc_nxh28zg58gh0000gn/T//ccgUFtj2.s:795    .text:00000272 .L38
/var/folders/wq/x3vp_84133jc_nxh28zg58gh0000gn/T//ccgUFtj2.s:926    .text:00000328 .L47
/var/folders/wq/x3vp_84133jc_nxh28zg58gh0000gn/T//ccgUFtj2.s:2160   .debug_abbrev:00000000 .Ldebug_abbrev0
/var/folders/wq/x3vp_84133jc_nxh28zg58gh0000gn/T//ccgUFtj2.s:10     .text:00000000 .Ltext0
/var/folders/wq/x3vp_84133jc_nxh28zg58gh0000gn/T//ccgUFtj2.s:1065   .text:000003c6 .Letext0
/var/folders/wq/x3vp_84133jc_nxh28zg58gh0000gn/T//ccgUFtj2.s:3827   .debug_line:00000000 .Ldebug_line0
/var/folders/wq/x3vp_84133jc_nxh28zg58gh0000gn/T//ccgUFtj2.s:433    .text:00000138 .LFB24
/var/folders/wq/x3vp_84133jc_nxh28zg58gh0000gn/T//ccgUFtj2.s:533    .text:00000194 .LFE24
/var/folders/wq/x3vp_84133jc_nxh28zg58gh0000gn/T//ccgUFtj2.s:2788   .debug_loc:00000000 .LLST16
/var/folders/wq/x3vp_84133jc_nxh28zg58gh0000gn/T//ccgUFtj2.s:2832   .debug_loc:0000005a .LLST17
/var/folders/wq/x3vp_84133jc_nxh28zg58gh0000gn/T//ccgUFtj2.s:2827   .debug_loc:00000056 .LVUS17
/var/folders/wq/x3vp_84133jc_nxh28zg58gh0000gn/T//ccgUFtj2.s:2853   .debug_loc:00000081 .LLST18
/var/folders/wq/x3vp_84133jc_nxh28zg58gh0000gn/T//ccgUFtj2.s:2846   .debug_loc:0000007b .LVUS18
/var/folders/wq/x3vp_84133jc_nxh28zg58gh0000gn/T//ccgUFtj2.s:2876   .debug_loc:000000b1 .LLST19
/var/folders/wq/x3vp_84133jc_nxh28zg58gh0000gn/T//ccgUFtj2.s:2871   .debug_loc:000000ad .LVUS19
/var/folders/wq/x3vp_84133jc_nxh28zg58gh0000gn/T//ccgUFtj2.s:3795   .debug_ranges:00000000 .Ldebug_ranges0
/var/folders/wq/x3vp_84133jc_nxh28zg58gh0000gn/T//ccgUFtj2.s:2906   .debug_loc:000000e1 .LLST20
/var/folders/wq/x3vp_84133jc_nxh28zg58gh0000gn/T//ccgUFtj2.s:2895   .debug_loc:000000d7 .LVUS20
/var/folders/wq/x3vp_84133jc_nxh28zg58gh0000gn/T//ccgUFtj2.s:513    .text:0000017e .LVL53
/var/folders/wq/x3vp_84133jc_nxh28zg58gh0000gn/T//ccgUFtj2.s:527    .text:00000192 .LVL54
/var/folders/wq/x3vp_84133jc_nxh28zg58gh0000gn/T//ccgUFtj2.s:466    .text:0000014c .LVL48
/var/folders/wq/x3vp_84133jc_nxh28zg58gh0000gn/T//ccgUFtj2.s:497    .text:0000016c .LVL51
/var/folders/wq/x3vp_84133jc_nxh28zg58gh0000gn/T//ccgUFtj2.s:720    .text:0000023e .LFB23
/var/folders/wq/x3vp_84133jc_nxh28zg58gh0000gn/T//ccgUFtj2.s:1053   .text:000003c6 .LFE23
/var/folders/wq/x3vp_84133jc_nxh28zg58gh0000gn/T//ccgUFtj2.s:2955   .debug_loc:0000013a .LLST28
/var/folders/wq/x3vp_84133jc_nxh28zg58gh0000gn/T//ccgUFtj2.s:3045   .debug_loc:000001f4 .LLST29
/var/folders/wq/x3vp_84133jc_nxh28zg58gh0000gn/T//ccgUFtj2.s:3034   .debug_loc:000001ea .LVUS29
/var/folders/wq/x3vp_84133jc_nxh28zg58gh0000gn/T//ccgUFtj2.s:3077   .debug_loc:0000023b .LLST30
/var/folders/wq/x3vp_84133jc_nxh28zg58gh0000gn/T//ccgUFtj2.s:3068   .debug_loc:00000233 .LVUS30
/var/folders/wq/x3vp_84133jc_nxh28zg58gh0000gn/T//ccgUFtj2.s:858    .text:000002c8 .LBB10
/var/folders/wq/x3vp_84133jc_nxh28zg58gh0000gn/T//ccgUFtj2.s:910    .text:00000310 .LBE10
/var/folders/wq/x3vp_84133jc_nxh28zg58gh0000gn/T//ccgUFtj2.s:870    .text:000002d6 .LVL73
/var/folders/wq/x3vp_84133jc_nxh28zg58gh0000gn/T//ccgUFtj2.s:876    .text:000002dc .LVL74
/var/folders/wq/x3vp_84133jc_nxh28zg58gh0000gn/T//ccgUFtj2.s:890    .text:000002f2 .LVL75
/var/folders/wq/x3vp_84133jc_nxh28zg58gh0000gn/T//ccgUFtj2.s:3117   .debug_loc:00000283 .LLST31
/var/folders/wq/x3vp_84133jc_nxh28zg58gh0000gn/T//ccgUFtj2.s:3112   .debug_loc:0000027f .LVUS31
/var/folders/wq/x3vp_84133jc_nxh28zg58gh0000gn/T//ccgUFtj2.s:1028   .text:000003ac .LVL86
/var/folders/wq/x3vp_84133jc_nxh28zg58gh0000gn/T//ccgUFtj2.s:783    .text:00000262 .LVL68
/var/folders/wq/x3vp_84133jc_nxh28zg58gh0000gn/T//ccgUFtj2.s:943    .text:0000033c .LVL77
/var/folders/wq/x3vp_84133jc_nxh28zg58gh0000gn/T//ccgUFtj2.s:980    .text:00000370 .LVL80
/var/folders/wq/x3vp_84133jc_nxh28zg58gh0000gn/T//ccgUFtj2.s:997    .text:00000388 .LVL81
/var/folders/wq/x3vp_84133jc_nxh28zg58gh0000gn/T//ccgUFtj2.s:1011   .text:000003a0 .LVL82
/var/folders/wq/x3vp_84133jc_nxh28zg58gh0000gn/T//ccgUFtj2.s:302    .text:000000be .LFB22
/var/folders/wq/x3vp_84133jc_nxh28zg58gh0000gn/T//ccgUFtj2.s:370    .text:00000108 .LFE22
/var/folders/wq/x3vp_84133jc_nxh28zg58gh0000gn/T//ccgUFtj2.s:3147   .debug_loc:000002b3 .LLST11
/var/folders/wq/x3vp_84133jc_nxh28zg58gh0000gn/T//ccgUFtj2.s:3138   .debug_loc:000002ab .LVUS11
/var/folders/wq/x3vp_84133jc_nxh28zg58gh0000gn/T//ccgUFtj2.s:3175   .debug_loc:000002ef .LLST12
/var/folders/wq/x3vp_84133jc_nxh28zg58gh0000gn/T//ccgUFtj2.s:3170   .debug_loc:000002eb .LVUS12
/var/folders/wq/x3vp_84133jc_nxh28zg58gh0000gn/T//ccgUFtj2.s:376    .text:00000108 .LFB21
/var/folders/wq/x3vp_84133jc_nxh28zg58gh0000gn/T//ccgUFtj2.s:390    .text:0000010e .LFE21
/var/folders/wq/x3vp_84133jc_nxh28zg58gh0000gn/T//ccgUFtj2.s:3201   .debug_loc:0000031b .LLST13
/var/folders/wq/x3vp_84133jc_nxh28zg58gh0000gn/T//ccgUFtj2.s:3196   .debug_loc:00000317 .LVUS13
/var/folders/wq/x3vp_84133jc_nxh28zg58gh0000gn/T//ccgUFtj2.s:3220   .debug_loc:00000340 .LLST14
/var/folders/wq/x3vp_84133jc_nxh28zg58gh0000gn/T//ccgUFtj2.s:3215   .debug_loc:0000033c .LVUS14
/var/folders/wq/x3vp_84133jc_nxh28zg58gh0000gn/T//ccgUFtj2.s:3244   .debug_loc:0000036a .LLST15
/var/folders/wq/x3vp_84133jc_nxh28zg58gh0000gn/T//ccgUFtj2.s:3239   .debug_loc:00000366 .LVUS15
/var/folders/wq/x3vp_84133jc_nxh28zg58gh0000gn/T//ccgUFtj2.s:387    .text:0000010e .LVL43
/var/folders/wq/x3vp_84133jc_nxh28zg58gh0000gn/T//ccgUFtj2.s:395    .text:0000010e .LFB20
/var/folders/wq/x3vp_84133jc_nxh28zg58gh0000gn/T//ccgUFtj2.s:427    .text:00000138 .LFE20
/var/folders/wq/x3vp_84133jc_nxh28zg58gh0000gn/T//ccgUFtj2.s:409    .text:0000011c .LVL44
/var/folders/wq/x3vp_84133jc_nxh28zg58gh0000gn/T//ccgUFtj2.s:417    .text:0000012a .LVL45
/var/folders/wq/x3vp_84133jc_nxh28zg58gh0000gn/T//ccgUFtj2.s:425    .text:00000138 .LVL46
/var/folders/wq/x3vp_84133jc_nxh28zg58gh0000gn/T//ccgUFtj2.s:123    .text:00000034 .LFB19
/var/folders/wq/x3vp_84133jc_nxh28zg58gh0000gn/T//ccgUFtj2.s:296    .text:000000be .LFE19
/var/folders/wq/x3vp_84133jc_nxh28zg58gh0000gn/T//ccgUFtj2.s:3268   .debug_loc:00000394 .LLST5
/var/folders/wq/x3vp_84133jc_nxh28zg58gh0000gn/T//ccgUFtj2.s:3263   .debug_loc:00000390 .LVUS5
/var/folders/wq/x3vp_84133jc_nxh28zg58gh0000gn/T//ccgUFtj2.s:3294   .debug_loc:000003c0 .LLST6
/var/folders/wq/x3vp_84133jc_nxh28zg58gh0000gn/T//ccgUFtj2.s:3289   .debug_loc:000003bc .LVUS6
/var/folders/wq/x3vp_84133jc_nxh28zg58gh0000gn/T//ccgUFtj2.s:3318   .debug_loc:000003ea .LLST7
/var/folders/wq/x3vp_84133jc_nxh28zg58gh0000gn/T//ccgUFtj2.s:3313   .debug_loc:000003e6 .LVUS7
/var/folders/wq/x3vp_84133jc_nxh28zg58gh0000gn/T//ccgUFtj2.s:3342   .debug_loc:00000414 .LLST8
/var/folders/wq/x3vp_84133jc_nxh28zg58gh0000gn/T//ccgUFtj2.s:3337   .debug_loc:00000410 .LVUS8
/var/folders/wq/x3vp_84133jc_nxh28zg58gh0000gn/T//ccgUFtj2.s:3368   .debug_loc:00000440 .LLST9
/var/folders/wq/x3vp_84133jc_nxh28zg58gh0000gn/T//ccgUFtj2.s:3359   .debug_loc:00000438 .LVUS9
/var/folders/wq/x3vp_84133jc_nxh28zg58gh0000gn/T//ccgUFtj2.s:3400   .debug_loc:00000480 .LLST10
/var/folders/wq/x3vp_84133jc_nxh28zg58gh0000gn/T//ccgUFtj2.s:3387   .debug_loc:00000474 .LVUS10
/var/folders/wq/x3vp_84133jc_nxh28zg58gh0000gn/T//ccgUFtj2.s:593    .text:000001bc .LFB18
/var/folders/wq/x3vp_84133jc_nxh28zg58gh0000gn/T//ccgUFtj2.s:715    .text:0000023e .LFE18
/var/folders/wq/x3vp_84133jc_nxh28zg58gh0000gn/T//ccgUFtj2.s:3429   .debug_loc:000004cc .LLST24
/var/folders/wq/x3vp_84133jc_nxh28zg58gh0000gn/T//ccgUFtj2.s:3465   .debug_loc:00000517 .LLST25
/var/folders/wq/x3vp_84133jc_nxh28zg58gh0000gn/T//ccgUFtj2.s:3460   .debug_loc:00000513 .LVUS25
/var/folders/wq/x3vp_84133jc_nxh28zg58gh0000gn/T//ccgUFtj2.s:3489   .debug_loc:00000541 .LLST26
/var/folders/wq/x3vp_84133jc_nxh28zg58gh0000gn/T//ccgUFtj2.s:3484   .debug_loc:0000053d .LVUS26
/var/folders/wq/x3vp_84133jc_nxh28zg58gh0000gn/T//ccgUFtj2.s:3512   .debug_loc:0000056a .LLST27
/var/folders/wq/x3vp_84133jc_nxh28zg58gh0000gn/T//ccgUFtj2.s:3503   .debug_loc:00000562 .LVUS27
/var/folders/wq/x3vp_84133jc_nxh28zg58gh0000gn/T//ccgUFtj2.s:658    .text:000001f6 .LVL65
/var/folders/wq/x3vp_84133jc_nxh28zg58gh0000gn/T//ccgUFtj2.s:539    .text:00000194 .LFB17
/var/folders/wq/x3vp_84133jc_nxh28zg58gh0000gn/T//ccgUFtj2.s:587    .text:000001bc .LFE17
/var/folders/wq/x3vp_84133jc_nxh28zg58gh0000gn/T//ccgUFtj2.s:3532   .debug_loc:0000059f .LLST21
/var/folders/wq/x3vp_84133jc_nxh28zg58gh0000gn/T//ccgUFtj2.s:3569   .debug_loc:000005eb .LLST22
/var/folders/wq/x3vp_84133jc_nxh28zg58gh0000gn/T//ccgUFtj2.s:3564   .debug_loc:000005e7 .LVUS22
/var/folders/wq/x3vp_84133jc_nxh28zg58gh0000gn/T//ccgUFtj2.s:3593   .debug_loc:00000615 .LLST23
/var/folders/wq/x3vp_84133jc_nxh28zg58gh0000gn/T//ccgUFtj2.s:3588   .debug_loc:00000611 .LVUS23
/var/folders/wq/x3vp_84133jc_nxh28zg58gh0000gn/T//ccgUFtj2.s:577    .text:000001b2 .LVL58
/var/folders/wq/x3vp_84133jc_nxh28zg58gh0000gn/T//ccgUFtj2.s:16     .text:00000000 .LFB16
/var/folders/wq/x3vp_84133jc_nxh28zg58gh0000gn/T//ccgUFtj2.s:32     .text:00000004 .LFE16
/var/folders/wq/x3vp_84133jc_nxh28zg58gh0000gn/T//ccgUFtj2.s:3612   .debug_loc:0000063a .LLST0
/var/folders/wq/x3vp_84133jc_nxh28zg58gh0000gn/T//ccgUFtj2.s:3607   .debug_loc:00000636 .LVUS0
/var/folders/wq/x3vp_84133jc_nxh28zg58gh0000gn/T//ccgUFtj2.s:38     .text:00000004 .LFB15
/var/folders/wq/x3vp_84133jc_nxh28zg58gh0000gn/T//ccgUFtj2.s:117    .text:00000034 .LFE15
/var/folders/wq/x3vp_84133jc_nxh28zg58gh0000gn/T//ccgUFtj2.s:3642   .debug_loc:0000066a .LLST1
/var/folders/wq/x3vp_84133jc_nxh28zg58gh0000gn/T//ccgUFtj2.s:3631   .debug_loc:00000660 .LVUS1
/var/folders/wq/x3vp_84133jc_nxh28zg58gh0000gn/T//ccgUFtj2.s:3690   .debug_loc:000006c1 .LLST2
/var/folders/wq/x3vp_84133jc_nxh28zg58gh0000gn/T//ccgUFtj2.s:3685   .debug_loc:000006bd .LVUS2
/var/folders/wq/x3vp_84133jc_nxh28zg58gh0000gn/T//ccgUFtj2.s:3714   .debug_loc:000006eb .LLST3
/var/folders/wq/x3vp_84133jc_nxh28zg58gh0000gn/T//ccgUFtj2.s:3701   .debug_loc:000006df .LVUS3
/var/folders/wq/x3vp_84133jc_nxh28zg58gh0000gn/T//ccgUFtj2.s:3766   .debug_loc:0000074d .LLST4
/var/folders/wq/x3vp_84133jc_nxh28zg58gh0000gn/T//ccgUFtj2.s:3759   .debug_loc:00000747 .LVUS4
/var/folders/wq/x3vp_84133jc_nxh28zg58gh0000gn/T//ccgUFtj2.s:438    .text:0000013a .LCFI0
/var/folders/wq/x3vp_84133jc_nxh28zg58gh0000gn/T//ccgUFtj2.s:442    .text:0000013c .LCFI1
/var/folders/wq/x3vp_84133jc_nxh28zg58gh0000gn/T//ccgUFtj2.s:446    .text:0000013e .LCFI2
/var/folders/wq/x3vp_84133jc_nxh28zg58gh0000gn/T//ccgUFtj2.s:450    .text:00000140 .LCFI3
/var/folders/wq/x3vp_84133jc_nxh28zg58gh0000gn/T//ccgUFtj2.s:454    .text:00000142 .LCFI4
/var/folders/wq/x3vp_84133jc_nxh28zg58gh0000gn/T//ccgUFtj2.s:432    .text:00000138 .LVL47
/var/folders/wq/x3vp_84133jc_nxh28zg58gh0000gn/T//ccgUFtj2.s:476    .text:00000156 .LVL49
/var/folders/wq/x3vp_84133jc_nxh28zg58gh0000gn/T//ccgUFtj2.s:490    .text:00000162 .LVL50
/var/folders/wq/x3vp_84133jc_nxh28zg58gh0000gn/T//ccgUFtj2.s:503    .text:0000016e .LVL52
/var/folders/wq/x3vp_84133jc_nxh28zg58gh0000gn/T//ccgUFtj2.s:724    .text:00000240 .LCFI13
/var/folders/wq/x3vp_84133jc_nxh28zg58gh0000gn/T//ccgUFtj2.s:728    .text:00000242 .LCFI14
/var/folders/wq/x3vp_84133jc_nxh28zg58gh0000gn/T//ccgUFtj2.s:732    .text:00000244 .LCFI15
/var/folders/wq/x3vp_84133jc_nxh28zg58gh0000gn/T//ccgUFtj2.s:736    .text:00000246 .LCFI16
/var/folders/wq/x3vp_84133jc_nxh28zg58gh0000gn/T//ccgUFtj2.s:740    .text:00000248 .LCFI17
/var/folders/wq/x3vp_84133jc_nxh28zg58gh0000gn/T//ccgUFtj2.s:744    .text:0000024a .LCFI18
/var/folders/wq/x3vp_84133jc_nxh28zg58gh0000gn/T//ccgUFtj2.s:748    .text:0000024c .LCFI19
/var/folders/wq/x3vp_84133jc_nxh28zg58gh0000gn/T//ccgUFtj2.s:752    .text:0000024e .LCFI20
/var/folders/wq/x3vp_84133jc_nxh28zg58gh0000gn/T//ccgUFtj2.s:756    .text:00000250 .LCFI21
/var/folders/wq/x3vp_84133jc_nxh28zg58gh0000gn/T//ccgUFtj2.s:760    .text:00000252 .LCFI22
/var/folders/wq/x3vp_84133jc_nxh28zg58gh0000gn/T//ccgUFtj2.s:765    .text:00000256 .LCFI23
/var/folders/wq/x3vp_84133jc_nxh28zg58gh0000gn/T//ccgUFtj2.s:769    .text:0000025a .LCFI24
/var/folders/wq/x3vp_84133jc_nxh28zg58gh0000gn/T//ccgUFtj2.s:806    .text:0000027e .LVL70
/var/folders/wq/x3vp_84133jc_nxh28zg58gh0000gn/T//ccgUFtj2.s:825    .text:0000029c .LVL71
/var/folders/wq/x3vp_84133jc_nxh28zg58gh0000gn/T//ccgUFtj2.s:846    .text:000002b6 .LVL72
/var/folders/wq/x3vp_84133jc_nxh28zg58gh0000gn/T//ccgUFtj2.s:961    .text:00000352 .LVL78
/var/folders/wq/x3vp_84133jc_nxh28zg58gh0000gn/T//ccgUFtj2.s:1013   .text:000003a2 .LVL83
/var/folders/wq/x3vp_84133jc_nxh28zg58gh0000gn/T//ccgUFtj2.s:1022   .text:000003a8 .LVL85
/var/folders/wq/x3vp_84133jc_nxh28zg58gh0000gn/T//ccgUFtj2.s:794    .text:00000272 .LVL69
/var/folders/wq/x3vp_84133jc_nxh28zg58gh0000gn/T//ccgUFtj2.s:964    .text:00000354 .LVL79
/var/folders/wq/x3vp_84133jc_nxh28zg58gh0000gn/T//ccgUFtj2.s:927    .text:00000328 .LVL76
/var/folders/wq/x3vp_84133jc_nxh28zg58gh0000gn/T//ccgUFtj2.s:301    .text:000000be .LVL37
/var/folders/wq/x3vp_84133jc_nxh28zg58gh0000gn/T//ccgUFtj2.s:357    .text:00000100 .LVL39
/var/folders/wq/x3vp_84133jc_nxh28zg58gh0000gn/T//ccgUFtj2.s:360    .text:00000102 .LVL40
/var/folders/wq/x3vp_84133jc_nxh28zg58gh0000gn/T//ccgUFtj2.s:365    .text:00000106 .LVL41
/var/folders/wq/x3vp_84133jc_nxh28zg58gh0000gn/T//ccgUFtj2.s:315    .text:000000c8 .LVL38
/var/folders/wq/x3vp_84133jc_nxh28zg58gh0000gn/T//ccgUFtj2.s:375    .text:00000108 .LVL42
/var/folders/wq/x3vp_84133jc_nxh28zg58gh0000gn/T//ccgUFtj2.s:122    .text:00000034 .LVL17
/var/folders/wq/x3vp_84133jc_nxh28zg58gh0000gn/T//ccgUFtj2.s:142    .text:0000003e .LVL19
/var/folders/wq/x3vp_84133jc_nxh28zg58gh0000gn/T//ccgUFtj2.s:136    .text:00000038 .LVL18
/var/folders/wq/x3vp_84133jc_nxh28zg58gh0000gn/T//ccgUFtj2.s:162    .text:0000004c .LVL20
/var/folders/wq/x3vp_84133jc_nxh28zg58gh0000gn/T//ccgUFtj2.s:191    .text:00000066 .LVL23
/var/folders/wq/x3vp_84133jc_nxh28zg58gh0000gn/T//ccgUFtj2.s:209    .text:00000078 .LVL25
/var/folders/wq/x3vp_84133jc_nxh28zg58gh0000gn/T//ccgUFtj2.s:243    .text:00000092 .LVL30
/var/folders/wq/x3vp_84133jc_nxh28zg58gh0000gn/T//ccgUFtj2.s:246    .text:00000094 .LVL31
/var/folders/wq/x3vp_84133jc_nxh28zg58gh0000gn/T//ccgUFtj2.s:267    .text:000000a4 .LVL34
/var/folders/wq/x3vp_84133jc_nxh28zg58gh0000gn/T//ccgUFtj2.s:277    .text:000000b0 .LVL35
/var/folders/wq/x3vp_84133jc_nxh28zg58gh0000gn/T//ccgUFtj2.s:290    .text:000000bc .LVL36
/var/folders/wq/x3vp_84133jc_nxh28zg58gh0000gn/T//ccgUFtj2.s:168    .text:00000052 .LVL21
/var/folders/wq/x3vp_84133jc_nxh28zg58gh0000gn/T//ccgUFtj2.s:179    .text:0000005c .LVL22
/var/folders/wq/x3vp_84133jc_nxh28zg58gh0000gn/T//ccgUFtj2.s:222    .text:00000082 .LVL26
/var/folders/wq/x3vp_84133jc_nxh28zg58gh0000gn/T//ccgUFtj2.s:226    .text:00000084 .LVL27
/var/folders/wq/x3vp_84133jc_nxh28zg58gh0000gn/T//ccgUFtj2.s:229    .text:00000086 .LVL28
/var/folders/wq/x3vp_84133jc_nxh28zg58gh0000gn/T//ccgUFtj2.s:238    .text:0000008e .LVL29
/var/folders/wq/x3vp_84133jc_nxh28zg58gh0000gn/T//ccgUFtj2.s:251    .text:00000096 .LVL32
/var/folders/wq/x3vp_84133jc_nxh28zg58gh0000gn/T//ccgUFtj2.s:254    .text:00000098 .LVL33
/var/folders/wq/x3vp_84133jc_nxh28zg58gh0000gn/T//ccgUFtj2.s:598    .text:000001be .LCFI9
/var/folders/wq/x3vp_84133jc_nxh28zg58gh0000gn/T//ccgUFtj2.s:602    .text:000001c0 .LCFI10
/var/folders/wq/x3vp_84133jc_nxh28zg58gh0000gn/T//ccgUFtj2.s:607    .text:000001c4 .LCFI11
/var/folders/wq/x3vp_84133jc_nxh28zg58gh0000gn/T//ccgUFtj2.s:610    .text:000001c6 .LCFI12
/var/folders/wq/x3vp_84133jc_nxh28zg58gh0000gn/T//ccgUFtj2.s:592    .text:000001bc .LVL59
/var/folders/wq/x3vp_84133jc_nxh28zg58gh0000gn/T//ccgUFtj2.s:634    .text:000001da .LVL62
/var/folders/wq/x3vp_84133jc_nxh28zg58gh0000gn/T//ccgUFtj2.s:627    .text:000001d4 .LVL61
/var/folders/wq/x3vp_84133jc_nxh28zg58gh0000gn/T//ccgUFtj2.s:622    .text:000001ca .LVL60
/var/folders/wq/x3vp_84133jc_nxh28zg58gh0000gn/T//ccgUFtj2.s:650    .text:000001ec .LVL63
/var/folders/wq/x3vp_84133jc_nxh28zg58gh0000gn/T//ccgUFtj2.s:655    .text:000001f2 .LVL64
/var/folders/wq/x3vp_84133jc_nxh28zg58gh0000gn/T//ccgUFtj2.s:669    .text:00000204 .LVL66
/var/folders/wq/x3vp_84133jc_nxh28zg58gh0000gn/T//ccgUFtj2.s:544    .text:00000196 .LCFI5
/var/folders/wq/x3vp_84133jc_nxh28zg58gh0000gn/T//ccgUFtj2.s:548    .text:00000198 .LCFI6
/var/folders/wq/x3vp_84133jc_nxh28zg58gh0000gn/T//ccgUFtj2.s:552    .text:0000019a .LCFI7
/var/folders/wq/x3vp_84133jc_nxh28zg58gh0000gn/T//ccgUFtj2.s:556    .text:0000019e .LCFI8
/var/folders/wq/x3vp_84133jc_nxh28zg58gh0000gn/T//ccgUFtj2.s:538    .text:00000194 .LVL55
/var/folders/wq/x3vp_84133jc_nxh28zg58gh0000gn/T//ccgUFtj2.s:565    .text:000001a2 .LVL56
/var/folders/wq/x3vp_84133jc_nxh28zg58gh0000gn/T//ccgUFtj2.s:573    .text:000001ac .LVL57
/var/folders/wq/x3vp_84133jc_nxh28zg58gh0000gn/T//ccgUFtj2.s:15     .text:00000000 .LVL0
/var/folders/wq/x3vp_84133jc_nxh28zg58gh0000gn/T//ccgUFtj2.s:27     .text:00000002 .LVL1
/var/folders/wq/x3vp_84133jc_nxh28zg58gh0000gn/T//ccgUFtj2.s:37     .text:00000004 .LVL2
/var/folders/wq/x3vp_84133jc_nxh28zg58gh0000gn/T//ccgUFtj2.s:53     .text:00000008 .LVL4
/var/folders/wq/x3vp_84133jc_nxh28zg58gh0000gn/T//ccgUFtj2.s:56     .text:0000000a .LVL5
/var/folders/wq/x3vp_84133jc_nxh28zg58gh0000gn/T//ccgUFtj2.s:71     .text:00000014 .LVL7
/var/folders/wq/x3vp_84133jc_nxh28zg58gh0000gn/T//ccgUFtj2.s:74     .text:00000016 .LVL8
/var/folders/wq/x3vp_84133jc_nxh28zg58gh0000gn/T//ccgUFtj2.s:60     .text:0000000a .LVL6
/var/folders/wq/x3vp_84133jc_nxh28zg58gh0000gn/T//ccgUFtj2.s:48     .text:00000006 .LVL3
/var/folders/wq/x3vp_84133jc_nxh28zg58gh0000gn/T//ccgUFtj2.s:77     .text:00000018 .LVL9
/var/folders/wq/x3vp_84133jc_nxh28zg58gh0000gn/T//ccgUFtj2.s:83     .text:0000001c .LVL10
/var/folders/wq/x3vp_84133jc_nxh28zg58gh0000gn/T//ccgUFtj2.s:95     .text:00000024 .LVL12
/var/folders/wq/x3vp_84133jc_nxh28zg58gh0000gn/T//ccgUFtj2.s:100    .text:00000028 .LVL13
/var/folders/wq/x3vp_84133jc_nxh28zg58gh0000gn/T//ccgUFtj2.s:105    .text:0000002c .LVL14
/var/folders/wq/x3vp_84133jc_nxh28zg58gh0000gn/T//ccgUFtj2.s:109    .text:00000030 .LVL15
/var/folders/wq/x3vp_84133jc_nxh28zg58gh0000gn/T//ccgUFtj2.s:91     .text:00000022 .LVL11
/var/folders/wq/x3vp_84133jc_nxh28zg58gh0000gn/T//ccgUFtj2.s:113    .text:00000032 .LVL16
/var/folders/wq/x3vp_84133jc_nxh28zg58gh0000gn/T//ccgUFtj2.s:1071   .debug_info:00000000 .Ldebug_info0
/var/folders/wq/x3vp_84133jc_nxh28zg58gh0000gn/T//ccgUFtj2.s:134    .text:00000038 .LBB2
/var/folders/wq/x3vp_84133jc_nxh28zg58gh0000gn/T//ccgUFtj2.s:149    .text:00000044 .LBE2
/var/folders/wq/x3vp_84133jc_nxh28zg58gh0000gn/T//ccgUFtj2.s:157    .text:0000004a .LBB5
/var/folders/wq/x3vp_84133jc_nxh28zg58gh0000gn/T//ccgUFtj2.s:294    .text:000000be .LBE5
/var/folders/wq/x3vp_84133jc_nxh28zg58gh0000gn/T//ccgUFtj2.s:158    .text:0000004a .LBB3
/var/folders/wq/x3vp_84133jc_nxh28zg58gh0000gn/T//ccgUFtj2.s:199    .text:0000006e .LBE3
/var/folders/wq/x3vp_84133jc_nxh28zg58gh0000gn/T//ccgUFtj2.s:211    .text:00000078 .LBB4
/var/folders/wq/x3vp_84133jc_nxh28zg58gh0000gn/T//ccgUFtj2.s:293    .text:000000be .LBE4
/var/folders/wq/x3vp_84133jc_nxh28zg58gh0000gn/T//ccgUFtj2.s:468    .text:0000014c .LBB6
/var/folders/wq/x3vp_84133jc_nxh28zg58gh0000gn/T//ccgUFtj2.s:483    .text:0000015c .LBE6
/var/folders/wq/x3vp_84133jc_nxh28zg58gh0000gn/T//ccgUFtj2.s:499    .text:0000016c .LBB7
/var/folders/wq/x3vp_84133jc_nxh28zg58gh0000gn/T//ccgUFtj2.s:531    .text:00000194 .LBE7
/var/folders/wq/x3vp_84133jc_nxh28zg58gh0000gn/T//ccgUFtj2.s:620    .text:000001ca .LBB8
/var/folders/wq/x3vp_84133jc_nxh28zg58gh0000gn/T//ccgUFtj2.s:644    .text:000001e4 .LBE8
/var/folders/wq/x3vp_84133jc_nxh28zg58gh0000gn/T//ccgUFtj2.s:671    .text:00000204 .LBB9
/var/folders/wq/x3vp_84133jc_nxh28zg58gh0000gn/T//ccgUFtj2.s:713    .text:0000023e .LBE9
/var/folders/wq/x3vp_84133jc_nxh28zg58gh0000gn/T//ccgUFtj2.s:914    .text:00000314 .LBB11
/var/folders/wq/x3vp_84133jc_nxh28zg58gh0000gn/T//ccgUFtj2.s:939    .text:00000338 .LBE11
/var/folders/wq/x3vp_84133jc_nxh28zg58gh0000gn/T//ccgUFtj2.s:1024   .text:000003a8 .LBB12
/var/folders/wq/x3vp_84133jc_nxh28zg58gh0000gn/T//ccgUFtj2.s:1051   .text:000003c6 .LBE12

UNDEFINED SYMBOLS
output_ch_0
input_ch_0
__do_copy_data
__do_clear_bss
